c__builtin__
set
p0
((lp1
(I4
I8
I3
I0
tp2
a(I4
I5
I2
I22
tp3
a(I1
I13
I2
I4
tp4
a(I3
I11
I2
I7
tp5
a(I4
I12
I3
I23
tp6
a(I4
I20
I3
I3
tp7
a(I4
I3
I1
I13
tp8
a(I4
I3
I1
I21
tp9
a(I4
I17
I1
I2
tp10
a(I1
I5
I2
I23
tp11
a(I3
I12
I2
I3
tp12
a(I4
I6
I3
I11
tp13
a(I4
I2
I1
I22
tp14
a(I2
I13
I1
I14
tp15
a(I4
I16
I1
I1
tp16
a(I3
I23
I2
I7
tp17
a(I4
I15
I3
I23
tp18
a(I4
I3
I1
I17
tp19
a(I4
I5
I3
I10
tp20
a(I2
I23
I3
I2
tp21
a(I4
I6
I3
I19
tp22
a(I3
I21
I2
I9
tp23
a(I4
I19
I3
I23
tp24
a(I4
I5
I3
I18
tp25
a(I3
I10
I2
I19
tp26
a(I4
I20
I2
I1
tp27
a(I1
I7
I2
I1
tp28
a(I2
I19
I1
I0
tp29
a(I2
I1
I3
I15
tp30
a(I1
I20
I4
I0
tp31
a(I4
I4
I3
I21
tp32
a(I2
I18
I1
I15
tp33
a(I4
I13
I3
I9
tp34
a(I4
I3
I1
I9
tp35
a(I1
I21
I2
I5
tp36
a(I3
I10
I2
I11
tp37
a(I2
I7
I1
I8
tp38
a(I4
I18
I3
I4
tp39
a(I1
I4
I2
I19
tp40
a(I3
I7
I2
I21
tp41
a(I3
I5
I2
I19
tp42
a(I4
I14
I2
I8
tp43
a(I2
I9
I4
I0
tp44
a(I2
I18
I1
I23
tp45
a(I2
I2
I3
I18
tp46
a(I4
I17
I3
I1
tp47
a(I3
I22
I2
I3
tp48
a(I2
I21
I1
I7
tp49
a(I2
I7
I1
I16
tp50
a(I3
I15
I2
I24
tp51
a(I4
I16
I3
I2
tp52
a(I3
I19
I2
I5
tp53
a(I3
I9
I4
I0
tp54
a(I2
I20
I1
I0
tp55
a(I4
I12
I2
I22
tp56
a(I2
I6
I1
I23
tp57
a(I2
I2
I3
I10
tp58
a(I3
I20
I2
I13
tp59
a(I2
I13
I3
I2
tp60
a(I2
I9
I1
I7
tp61
a(I4
I19
I2
I5
tp62
a(I4
I21
I2
I13
tp63
a(I3
I13
I2
I14
tp64
a(I4
I11
I3
I8
tp65
a(I2
I16
I3
I2
tp66
a(I2
I22
I1
I21
tp67
a(I4
I1
I3
I11
tp68
a(I2
I12
I3
I1
tp69
a(I2
I23
I1
I6
tp70
a(I4
I7
I2
I1
tp71
a(I4
I2
I3
I18
tp72
a(I1
I20
I2
I1
tp73
a(I1
I8
I2
I4
tp74
a(I4
I11
I3
I16
tp75
a(I1
I17
I2
I3
tp76
a(I4
I21
I3
I19
tp77
a(I3
I6
I2
I17
tp78
a(I3
I18
I2
I17
tp79
a(I2
I11
I1
I6
tp80
a(I4
I5
I2
I7
tp81
a(I3
I11
I2
I22
tp82
a(I4
I2
I2
I6
tp83
a(I2
I24
I1
I18
tp84
a(I4
I24
I2
I5
tp85
a(I4
I13
I2
I12
tp86
a(I4
I20
I3
I12
tp87
a(I3
I23
I2
I22
tp88
a(I1
I2
I2
I15
tp89
a(I4
I10
I2
I9
tp90
a(I4
I7
I3
I3
tp91
a(I4
I3
I1
I4
tp92
a(I1
I5
I2
I14
tp93
a(I3
I12
I2
I4
tp94
a(I4
I6
I3
I0
tp95
a(I4
I2
I1
I15
tp96
a(I3
I5
I4
I0
tp97
a(I3
I23
I2
I14
tp98
a(I4
I15
I3
I14
tp99
a(I2
I16
I1
I7
tp100
a(I3
I22
I2
I13
tp101
a(I4
I5
I3
I13
tp102
a(I4
I17
I2
I11
tp103
a(I3
I24
I2
I4
tp104
a(I2
I0
I4
I0
tp105
a(I4
I14
I3
I5
tp106
a(I4
I24
I1
I3
tp107
a(I4
I4
I3
I6
tp108
a(I4
I17
I2
I4
tp109
a(I4
I13
I1
I2
tp110
a(I3
I21
I2
I0
tp111
a(I4
I13
I3
I24
tp112
a(I2
I8
I3
I0
tp113
a(I4
I5
I3
I21
tp114
a(I3
I10
I2
I24
tp115
a(I2
I1
I3
I6
tp116
a(I4
I3
I2
I0
tp117
a(I4
I12
I3
I11
tp118
a(I3
I7
I2
I4
tp119
a(I1
I18
I2
I1
tp120
a(I4
I6
I2
I4
tp121
a(I2
I23
I4
I0
tp122
a(I2
I14
I1
I3
tp123
a(I1
I9
I2
I1
tp124
a(I2
I21
I1
I22
tp125
a(I4
I3
I2
I24
tp126
a(I2
I7
I1
I15
tp127
a(I4
I18
I3
I13
tp128
a(I1
I4
I2
I8
tp129
a(I4
I6
I2
I14
tp130
a(I3
I5
I2
I10
tp131
a(I1
I24
I4
I0
tp132
a(I4
I14
I2
I15
tp133
a(I4
I4
I2
I2
tp134
a(I4
I17
I3
I24
tp135
a(I1
I23
I2
I2
tp136
a(I3
I8
I2
I22
tp137
a(I2
I21
I1
I14
tp138
a(I3
I16
I4
I0
tp139
a(I2
I7
I1
I23
tp140
a(I4
I6
I1
I1
tp141
a(I3
I19
I2
I12
tp142
a(I1
I14
I2
I17
tp143
a(I4
I3
I3
I12
tp144
a(I1
I1
I2
I20
tp145
a(I2
I23
I1
I21
tp146
a(I4
I9
I2
I19
tp147
a(I4
I24
I3
I0
tp148
a(I4
I3
I1
I22
tp149
a(I2
I22
I1
I18
tp150
a(I4
I1
I3
I2
tp151
a(I4
I10
I3
I12
tp152
a(I2
I11
I1
I21
tp153
a(I4
I4
I1
I2
tp154
a(I4
I22
I3
I11
tp155
a(I4
I13
I1
I0
tp156
a(I2
I22
I1
I10
tp157
a(I4
I23
I3
I20
tp158
a(I3
I14
I2
I11
tp159
a(I4
I21
I3
I10
tp160
a(I3
I6
I2
I22
tp161
a(I3
I18
I2
I14
tp162
a(I4
I10
I3
I20
tp163
a(I2
I7
I3
I2
tp164
a(I4
I5
I2
I0
tp165
a(I3
I11
I2
I13
tp166
a(I1
I22
I2
I0
tp167
a(I1
I10
I2
I3
tp168
a(I4
I7
I3
I18
tp169
a(I4
I2
I2
I13
tp170
a(I2
I24
I1
I11
tp171
a(I4
I9
I3
I17
tp172
a(I2
I10
I1
I2
tp173
a(I3
I14
I2
I19
tp174
a(I1
I13
I2
I2
tp175
a(I2
I3
I1
I0
tp176
a(I4
I2
I1
I24
tp177
a(I4
I13
I2
I5
tp178
a(I1
I4
I4
I0
tp179
a(I4
I10
I2
I0
tp180
a(I4
I7
I3
I10
tp181
a(I1
I5
I2
I5
tp182
a(I3
I12
I2
I13
tp183
a(I1
I15
I2
I4
tp184
a(I4
I2
I1
I0
tp185
a(I4
I15
I3
I5
tp186
a(I4
I11
I1
I2
tp187
a(I2
I16
I1
I8
tp188
a(I4
I5
I3
I4
tp189
a(I4
I22
I2
I21
tp190
a(I1
I17
I4
I0
tp191
a(I4
I3
I1
I23
tp192
a(I2
I1
I3
I21
tp193
a(I4
I14
I3
I2
tp194
a(I4
I18
I3
I20
tp195
a(I4
I6
I2
I19
tp196
a(I4
I1
I1
I14
tp197
a(I4
I19
I3
I5
tp198
a(I2
I4
I1
I0
tp199
a(I2
I14
I1
I16
tp200
a(I2
I19
I1
I22
tp201
a(I4
I3
I2
I9
tp202
a(I4
I12
I3
I4
tp203
a(I3
I7
I2
I3
tp204
a(I2
I12
I4
I0
tp205
a(I1
I12
I2
I4
tp206
a(I4
I9
I1
I1
tp207
a(I4
I6
I2
I11
tp208
a(I4
I17
I3
I11
tp209
a(I3
I8
I2
I7
tp210
a(I4
I11
I2
I2
tp211
a(I4
I23
I2
I1
tp212
a(I3
I15
I2
I6
tp213
a(I1
I4
I2
I1
tp214
a(I1
I14
I2
I2
tp215
a(I4
I14
I2
I6
tp216
a(I2
I20
I1
I10
tp217
a(I2
I6
I1
I13
tp218
a(I4
I4
I2
I5
tp219
a(I4
I17
I3
I19
tp220
a(I1
I1
I2
I3
tp221
a(I4
I24
I3
I17
tp222
a(I4
I21
I2
I7
tp223
a(I4
I3
I3
I11
tp224
a(I2
I20
I1
I18
tp225
a(I4
I12
I2
I0
tp226
a(I2
I18
I4
I0
tp227
a(I4
I7
I2
I15
tp228
a(I4
I2
I3
I8
tp229
a(I4
I11
I2
I8
tp230
a(I4
I24
I2
I10
tp231
a(I4
I24
I3
I9
tp232
a(I4
I5
I3
I24
tp233
a(I3
I22
I2
I19
tp234
a(I3
I6
I2
I7
tp235
a(I4
I15
I2
I16
tp236
a(I4
I10
I3
I5
tp237
a(I4
I7
I2
I23
tp238
a(I4
I11
I2
I12
tp239
a(I4
I22
I3
I0
tp240
a(I3
I3
I2
I9
tp241
a(I3
I21
I4
I0
tp242
a(I4
I12
I3
I22
tp243
a(I3
I4
I2
I0
tp244
a(I4
I9
I3
I0
tp245
a(I3
I14
I2
I0
tp246
a(I4
I21
I3
I13
tp247
a(I3
I18
I2
I7
tp248
a(I4
I8
I3
I3
tp249
a(I4
I5
I2
I9
tp250
a(I3
I11
I2
I4
tp251
a(I4
I20
I3
I6
tp252
a(I1
I10
I2
I12
tp253
a(I4
I2
I2
I20
tp254
a(I2
I24
I1
I12
tp255
a(I2
I10
I1
I11
tp256
a(I1
I5
I2
I20
tp257
a(I1
I19
I2
I15
tp258
a(I2
I21
I3
I1
tp259
a(I4
I6
I3
I14
tp260
a(I4
I2
I1
I17
tp261
a(I4
I19
I2
I0
tp262
a(I1
I24
I2
I0
tp263
a(I3
I23
I2
I4
tp264
a(I4
I4
I2
I11
tp265
a(I4
I15
I3
I20
tp266
a(I4
I22
I2
I4
tp267
a(I2
I7
I4
I0
tp268
a(I3
I12
I2
I22
tp269
a(I3
I24
I2
I14
tp270
a(I4
I14
I3
I19
tp271
a(I4
I6
I3
I22
tp272
a(I1
I16
I2
I5
tp273
a(I4
I17
I2
I14
tp274
a(I4
I4
I2
I15
tp275
a(I3
I21
I2
I10
tp276
a(I1
I8
I4
I0
tp277
a(I4
I13
I3
I18
tp278
a(I4
I8
I2
I1
tp279
a(I3
I10
I2
I22
tp280
a(I4
I20
I2
I2
tp281
a(I1
I7
I2
I2
tp282
a(I2
I1
I3
I12
tp283
a(I4
I14
I3
I11
tp284
a(I3
I22
I2
I16
tp285
a(I4
I4
I3
I8
tp286
a(I4
I22
I1
I1
tp287
a(I4
I17
I2
I22
tp288
a(I3
I21
I2
I18
tp289
a(I2
I18
I1
I10
tp290
a(I4
I13
I3
I10
tp291
a(I1
I21
I2
I10
tp292
a(I2
I14
I1
I9
tp293
a(I3
I10
I2
I14
tp294
a(I4
I20
I1
I3
tp295
a(I4
I3
I2
I14
tp296
a(I1
I23
I2
I3
tp297
a(I4
I23
I2
I22
tp298
a(I4
I18
I3
I3
tp299
a(I3
I7
I2
I10
tp300
a(I3
I5
I2
I20
tp301
a(I4
I14
I2
I21
tp302
a(I4
I17
I3
I2
tp303
a(I3
I8
I2
I0
tp304
a(I2
I21
I1
I0
tp305
a(I1
I22
I4
I0
tp306
a(I1
I4
I2
I6
tp307
a(I4
I16
I3
I13
tp308
a(I2
I20
I1
I3
tp309
a(I4
I18
I2
I21
tp310
a(I2
I6
I1
I10
tp311
a(I2
I2
I3
I5
tp312
a(I2
I17
I3
I2
tp313
a(I3
I20
I2
I8
tp314
a(I2
I9
I1
I8
tp315
a(I4
I21
I2
I0
tp316
a(I4
I16
I3
I21
tp317
a(I3
I13
I2
I3
tp318
a(I1
I6
I2
I0
tp319
a(I4
I11
I3
I13
tp320
a(I2
I16
I3
I1
tp321
a(I4
I3
I3
I18
tp322
a(I2
I11
I4
I0
tp323
a(I4
I12
I2
I11
tp324
a(I2
I8
I1
I11
tp325
a(I2
I23
I1
I3
tp326
a(I4
I7
I2
I4
tp327
a(I2
I9
I1
I16
tp328
a(I4
I22
I3
I17
tp329
a(I4
I18
I3
I5
tp330
a(I3
I3
I2
I24
tp331
a(I4
I11
I3
I21
tp332
a(I4
I4
I2
I19
tp333
a(I2
I22
I1
I0
tp334
a(I4
I23
I3
I10
tp335
a(I1
I17
I2
I0
tp336
a(I3
I6
I2
I12
tp337
a(I3
I18
I2
I20
tp338
a(I4
I9
I2
I2
tp339
a(I4
I18
I1
I0
tp340
a(I4
I20
I3
I23
tp341
a(I4
I3
I3
I13
tp342
a(I4
I4
I2
I23
tp343
a(I4
I9
I3
I11
tp344
a(I2
I10
I1
I24
tp345
a(I4
I24
I2
I6
tp346
a(I4
I21
I3
I4
tp347
a(I4
I9
I2
I6
tp348
a(I4
I13
I2
I15
tp349
a(I4
I8
I3
I4
tp350
a(I4
I5
I2
I18
tp351
a(I4
I20
I3
I15
tp352
a(I4
I10
I2
I14
tp353
a(I4
I7
I3
I0
tp354
a(I4
I2
I2
I19
tp355
a(I1
I5
I2
I19
tp356
a(I3
I12
I2
I7
tp357
a(I4
I9
I2
I10
tp358
a(I4
I2
I1
I10
tp359
a(I2
I13
I1
I2
tp360
a(I3
I23
I2
I3
tp361
a(I4
I3
I3
I21
tp362
a(I4
I15
I3
I11
tp363
a(I4
I10
I2
I22
tp364
a(I2
I16
I1
I2
tp365
a(I4
I5
I3
I14
tp366
a(I4
I15
I3
I22
tp367
a(I3
I24
I2
I7
tp368
a(I4
I14
I3
I24
tp369
a(I2
I9
I3
I0
tp370
a(I4
I12
I2
I6
tp371
a(I1
I16
I2
I2
tp372
a(I4
I17
I2
I7
tp373
a(I4
I1
I1
I4
tp374
a(I4
I13
I3
I21
tp375
a(I2
I22
I3
I1
tp376
a(I4
I5
I3
I22
tp377
a(I4
I20
I2
I5
tp378
a(I4
I18
I1
I2
tp379
a(I2
I1
I3
I11
tp380
a(I4
I12
I3
I14
tp381
a(I4
I4
I3
I17
tp382
a(I1
I18
I2
I4
tp383
a(I3
I13
I2
I10
tp384
a(I4
I8
I2
I11
tp385
a(I2
I18
I1
I3
tp386
a(I4
I6
I2
I1
tp387
a(I4
I19
I3
I11
tp388
a(I1
I21
I2
I1
tp389
a(I2
I14
I1
I6
tp390
a(I2
I21
I1
I19
tp391
a(I2
I2
I4
I0
tp392
a(I2
I7
I1
I12
tp393
a(I4
I18
I3
I8
tp394
a(I4
I18
I2
I8
tp395
a(I1
I4
I2
I23
tp396
a(I3
I7
I2
I17
tp397
a(I4
I14
I2
I12
tp398
a(I4
I7
I1
I3
tp399
a(I2
I2
I3
I22
tp400
a(I1
I13
I4
I0
tp401
a(I1
I1
I2
I9
tp402
a(I2
I21
I1
I11
tp403
a(I3
I15
I2
I20
tp404
a(I4
I16
I3
I6
tp405
a(I3
I20
I2
I17
tp406
a(I1
I6
I2
I17
tp407
a(I3
I19
I2
I9
tp408
a(I2
I24
I1
I21
tp409
a(I4
I3
I3
I1
tp410
a(I2
I2
I3
I14
tp411
a(I1
I1
I2
I17
tp412
a(I4
I24
I3
I15
tp413
a(I2
I23
I1
I18
tp414
a(I2
I9
I1
I3
tp415
a(I4
I24
I3
I3
tp416
a(I4
I21
I2
I9
tp417
a(I3
I20
I2
I21
tp418
a(I2
I8
I1
I0
tp419
a(I3
I17
I2
I7
tp420
a(I4
I5
I1
I2
tp421
a(I4
I1
I3
I7
tp422
a(I4
I10
I3
I11
tp423
a(I2
I5
I3
I1
tp424
a(I4
I2
I3
I22
tp425
a(I1
I20
I2
I5
tp426
a(I4
I22
I3
I14
tp427
a(I2
I15
I3
I0
tp428
a(I1
I8
I2
I0
tp429
a(I2
I22
I1
I9
tp430
a(I2
I18
I3
I0
tp431
a(I2
I8
I1
I20
tp432
a(I4
I21
I3
I23
tp433
a(I3
I18
I2
I13
tp434
a(I4
I15
I2
I6
tp435
a(I4
I10
I3
I19
tp436
a(I2
I11
I1
I2
tp437
a(I4
I5
I2
I3
tp438
a(I3
I11
I2
I10
tp439
a(I1
I22
I2
I3
tp440
a(I4
I20
I3
I16
tp441
a(I4
I19
I3
I4
tp442
a(I4
I3
I1
I24
tp443
a(I2
I24
I1
I22
tp444
a(I4
I24
I2
I1
tp445
a(I1
I19
I2
I1
tp446
a(I3
I16
I2
I19
tp447
a(I4
I13
I2
I8
tp448
a(I4
I8
I3
I13
tp449
a(I4
I20
I3
I8
tp450
a(I3
I9
I2
I20
tp451
a(I4
I10
I2
I5
tp452
a(I4
I3
I1
I0
tp453
a(I1
I5
I2
I10
tp454
a(I3
I12
I2
I8
tp455
a(I2
I17
I1
I8
tp456
a(I3
I16
I2
I11
tp457
a(I4
I2
I1
I3
tp458
a(I4
I19
I2
I14
tp459
a(I3
I9
I2
I12
tp460
a(I4
I10
I3
I7
tp461
a(I4
I15
I3
I2
tp462
a(I3
I18
I2
I21
tp463
a(I4
I5
I3
I1
tp464
a(I3
I2
I2
I3
tp465
a(I3
I24
I2
I0
tp466
a(I4
I14
I3
I1
tp467
a(I2
I5
I1
I0
tp468
a(I4
I4
I3
I2
tp469
a(I4
I17
I2
I24
tp470
a(I3
I4
I2
I23
tp471
a(I4
I1
I1
I3
tp472
a(I4
I11
I2
I10
tp473
a(I2
I4
I1
I3
tp474
a(I2
I14
I1
I23
tp475
a(I3
I10
I2
I4
tp476
a(I2
I1
I3
I2
tp477
a(I4
I3
I2
I4
tp478
a(I4
I0
I1
I0
tp479
a(I4
I12
I3
I7
tp480
a(I2
I11
I3
I1
tp481
a(I3
I7
I2
I0
tp482
a(I1
I12
I2
I3
tp483
a(I4
I4
I1
I1
tp484
a(I4
I24
I2
I21
tp485
a(I2
I18
I1
I24
tp486
a(I3
I4
I2
I11
tp487
a(I4
I18
I1
I1
tp488
a(I4
I17
I3
I12
tp489
a(I2
I10
I3
I2
tp490
a(I3
I22
I2
I20
tp491
a(I1
I19
I4
I0
tp492
a(I4
I11
I2
I1
tp493
a(I2
I7
I1
I3
tp494
a(I4
I1
I2
I2
tp495
a(I3
I15
I2
I11
tp496
a(I1
I4
I2
I12
tp497
a(I3
I7
I2
I24
tp498
a(I3
I5
I2
I6
tp499
a(I4
I14
I2
I3
tp500
a(I2
I20
I1
I13
tp501
a(I3
I18
I2
I9
tp502
a(I2
I6
I1
I0
tp503
a(I4
I4
I2
I6
tp504
a(I4
I17
I3
I20
tp505
a(I1
I1
I2
I0
tp506
a(I3
I22
I2
I12
tp507
a(I1
I11
I2
I3
tp508
a(I3
I15
I2
I19
tp509
a(I2
I14
I4
I0
tp510
a(I3
I19
I2
I16
tp511
a(I4
I3
I3
I8
tp512
a(I4
I15
I1
I1
tp513
a(I2
I20
I1
I21
tp514
a(I3
I18
I2
I5
tp515
a(I2
I6
I1
I24
tp516
a(I2
I23
I1
I9
tp517
a(I4
I14
I1
I2
tp518
a(I4
I9
I2
I23
tp519
a(I4
I24
I3
I4
tp520
a(I4
I11
I3
I3
tp521
a(I4
I23
I3
I0
tp522
a(I4
I10
I3
I0
tp523
a(I4
I22
I3
I7
tp524
a(I3
I3
I2
I6
tp525
a(I4
I9
I3
I5
tp526
a(I4
I3
I1
I10
tp527
a(I4
I23
I3
I24
tp528
a(I3
I14
I2
I15
tp529
a(I4
I21
I3
I14
tp530
a(I4
I16
I2
I21
tp531
a(I3
I18
I2
I10
tp532
a(I4
I12
I1
I3
tp533
a(I2
I11
I1
I9
tp534
a(I4
I5
I2
I12
tp535
a(I1
I22
I2
I4
tp536
a(I3
I1
I2
I0
tp537
a(I1
I10
I2
I15
tp538
a(I4
I7
I3
I22
tp539
a(I4
I2
I2
I9
tp540
a(I2
I24
I1
I15
tp541
a(I2
I6
I3
I1
tp542
a(I2
I13
I1
I20
tp543
a(I4
I4
I1
I0
tp544
a(I4
I15
I3
I17
tp545
a(I4
I5
I2
I19
tp546
a(I4
I7
I3
I14
tp547
a(I4
I2
I2
I10
tp548
a(I2
I2
I1
I3
tp549
a(I4
I22
I2
I1
tp550
a(I1
I5
I2
I1
tp551
a(I1
I15
I2
I0
tp552
a(I4
I14
I3
I22
tp553
a(I4
I19
I2
I18
tp554
a(I4
I6
I3
I21
tp555
a(I4
I2
I1
I4
tp556
a(I1
I13
I2
I3
tp557
a(I4
I8
I2
I2
tp558
a(I2
I6
I3
I0
tp559
a(I4
I23
I1
I3
tp560
a(I3
I10
I2
I21
tp561
a(I4
I20
I2
I15
tp562
a(I2
I19
I1
I10
tp563
a(I2
I1
I3
I17
tp564
a(I4
I19
I2
I22
tp565
a(I4
I4
I3
I11
tp566
a(I2
I18
I1
I9
tp567
a(I4
I6
I2
I23
tp568
a(I4
I19
I3
I1
tp569
a(I4
I3
I1
I8
tp570
a(I1
I21
I2
I15
tp571
a(I2
I14
I1
I12
tp572
a(I3
I10
I2
I13
tp573
a(I2
I19
I1
I18
tp574
a(I4
I3
I2
I13
tp575
a(I4
I12
I3
I0
tp576
a(I4
I8
I3
I17
tp577
a(I3
I7
I2
I15
tp578
a(I1
I12
I2
I8
tp579
a(I3
I23
I2
I18
tp580
a(I1
I10
I4
I0
tp581
a(I2
I18
I1
I17
tp582
a(I4
I6
I2
I15
tp583
a(I4
I21
I1
I2
tp584
a(I3
I8
I2
I3
tp585
a(I4
I11
I2
I6
tp586
a(I4
I8
I1
I2
tp587
a(I4
I13
I2
I0
tp588
a(I1
I4
I2
I5
tp589
a(I4
I16
I3
I8
tp590
a(I2
I20
I1
I6
tp591
a(I2
I6
I1
I9
tp592
a(I2
I2
I3
I0
tp593
a(I1
I1
I2
I7
tp594
a(I2
I23
I1
I24
tp595
a(I4
I3
I1
I11
tp596
a(I2
I9
I1
I13
tp597
a(I4
I19
I2
I2
tp598
a(I4
I24
I3
I21
tp599
a(I3
I13
I2
I4
tp600
a(I1
I6
I2
I3
tp601
a(I3
I19
I2
I23
tp602
a(I4
I3
I3
I23
tp603
a(I4
I1
I3
I17
tp604
a(I4
I18
I2
I2
tp605
a(I1
I3
I2
I1
tp606
a(I2
I23
I1
I0
tp607
a(I4
I2
I3
I12
tp608
a(I2
I9
I1
I21
tp609
a(I4
I22
I3
I20
tp610
a(I4
I24
I3
I13
tp611
a(I3
I3
I2
I21
tp612
a(I3
I9
I2
I0
tp613
a(I2
I22
I1
I7
tp614
a(I4
I19
I1
I0
tp615
a(I3
I6
I2
I11
tp616
a(I4
I7
I2
I19
tp617
a(I2
I11
I1
I24
tp618
a(I3
I11
I2
I16
tp619
a(I2
I10
I1
I23
tp620
a(I3
I14
I2
I4
tp621
a(I4
I21
I3
I1
tp622
a(I3
I4
I2
I5
tp623
a(I1
I15
I2
I5
tp624
a(I4
I8
I3
I7
tp625
a(I4
I5
I2
I21
tp626
a(I4
I20
I3
I2
tp627
a(I4
I2
I2
I16
tp628
a(I2
I24
I1
I0
tp629
a(I4
I17
I1
I3
tp630
a(I2
I10
I1
I15
tp631
a(I1
I5
I2
I16
tp632
a(I2
I17
I1
I2
tp633
a(I3
I24
I2
I16
tp634
a(I4
I6
I3
I10
tp635
a(I4
I2
I1
I21
tp636
a(I4
I19
I2
I4
tp637
a(I4
I16
I1
I0
tp638
a(I3
I9
I2
I6
tp639
a(I4
I15
I3
I8
tp640
a(I2
I20
I3
I2
tp641
a(I3
I23
I2
I10
tp642
a(I4
I5
I3
I11
tp643
a(I4
I22
I2
I8
tp644
a(I2
I12
I1
I24
tp645
a(I3
I24
I2
I10
tp646
a(I1
I3
I4
I0
tp647
a(I4
I6
I3
I18
tp648
a(I1
I16
I2
I1
tp649
a(I4
I17
I2
I2
tp650
a(I3
I21
I2
I6
tp651
a(I2
I16
I1
I21
tp652
a(I4
I13
I3
I22
tp653
a(I4
I8
I2
I13
tp654
a(I4
I5
I3
I19
tp655
a(I3
I10
I2
I18
tp656
a(I4
I20
I2
I6
tp657
a(I2
I1
I3
I8
tp658
a(I4
I4
I3
I20
tp659
a(I2
I18
I1
I14
tp660
a(I4
I19
I3
I8
tp661
a(I4
I3
I2
I18
tp662
a(I2
I7
I1
I9
tp663
a(I4
I23
I2
I18
tp664
a(I4
I18
I3
I7
tp665
a(I1
I4
I2
I18
tp666
a(I3
I5
I2
I16
tp667
a(I2
I18
I1
I22
tp668
a(I2
I2
I3
I17
tp669
a(I2
I7
I1
I17
tp670
a(I4
I21
I2
I20
tp671
a(I4
I16
I3
I1
tp672
a(I3
I19
I2
I6
tp673
a(I3
I17
I2
I24
tp674
a(I4
I18
I2
I17
tp675
a(I2
I6
I1
I22
tp676
a(I2
I2
I3
I9
tp677
a(I4
I19
I3
I22
tp678
a(I3
I20
I2
I12
tp679
a(I1
I6
I2
I4
tp680
a(I4
I11
I3
I9
tp681
a(I3
I17
I2
I0
tp682
a(I2
I22
I1
I20
tp683
a(I1
I6
I4
I0
tp684
a(I2
I12
I3
I0
tp685
a(I2
I8
I1
I15
tp686
a(I1
I15
I4
I0
tp687
a(I3
I10
I4
I0
tp688
a(I2
I23
I1
I7
tp689
a(I2
I19
I3
I0
tp690
a(I4
I7
I2
I0
tp691
a(I4
I2
I3
I21
tp692
a(I1
I20
I2
I0
tp693
a(I4
I22
I3
I13
tp694
a(I4
I11
I3
I17
tp695
a(I4
I23
I3
I14
tp696
a(I1
I17
I2
I4
tp697
a(I3
I18
I2
I16
tp698
a(I4
I15
I2
I5
tp699
a(I2
I11
I1
I7
tp700
a(I4
I5
I2
I6
tp701
a(I3
I11
I2
I23
tp702
a(I4
I20
I3
I19
tp703
a(I4
I2
I2
I7
tp704
a(I2
I24
I1
I17
tp705
a(I4
I9
I3
I23
tp706
a(I4
I6
I2
I16
tp707
a(I4
I24
I2
I2
tp708
a(I1
I19
I2
I2
tp709
a(I3
I16
I2
I22
tp710
a(I4
I20
I3
I11
tp711
a(I3
I9
I2
I17
tp712
a(I4
I7
I3
I4
tp713
a(I4
I3
I1
I5
tp714
a(I1
I5
I2
I15
tp715
a(I3
I12
I2
I11
tp716
a(I4
I19
I3
I6
tp717
a(I3
I16
I2
I14
tp718
a(I4
I2
I1
I14
tp719
a(I2
I13
I1
I6
tp720
a(I4
I12
I3
I15
tp721
a(I4
I10
I2
I18
tp722
a(I2
I16
I1
I6
tp723
a(I4
I5
I3
I2
tp724
a(I4
I22
I2
I15
tp725
a(I4
I20
I2
I17
tp726
a(I1
I7
I2
I17
tp727
a(I3
I24
I2
I3
tp728
a(I4
I14
I3
I4
tp729
a(I4
I24
I1
I2
tp730
a(I4
I18
I3
I21
tp731
a(I3
I8
I2
I18
tp732
a(I4
I1
I1
I0
tp733
a(I4
I8
I2
I20
tp734
a(I3
I6
I4
I0
tp735
a(I2
I19
I1
I24
tp736
a(I2
I1
I3
I7
tp737
a(I4
I12
I3
I10
tp738
a(I2
I11
I3
I2
tp739
a(I3
I7
I2
I5
tp740
a(I2
I15
I1
I8
tp741
a(I1
I18
I2
I0
tp742
a(I2
I18
I1
I7
tp743
a(I4
I6
I2
I5
tp744
a(I4
I16
I2
I10
tp745
a(I2
I14
I1
I2
tp746
a(I1
I9
I2
I2
tp747
a(I2
I21
I1
I23
tp748
a(I4
I19
I3
I10
tp749
a(I2
I7
I1
I0
tp750
a(I4
I23
I2
I11
tp751
a(I1
I4
I2
I11
tp752
a(I3
I5
I2
I11
tp753
a(I4
I14
I2
I0
tp754
a(I4
I4
I2
I3
tp755
a(I1
I1
I2
I13
tp756
a(I3
I22
I2
I11
tp757
a(I2
I21
I1
I15
tp758
a(I4
I6
I1
I0
tp759
a(I4
I19
I3
I14
tp760
a(I3
I15
I2
I16
tp761
a(I3
I19
I2
I13
tp762
a(I3
I17
I2
I19
tp763
a(I4
I15
I1
I2
tp764
a(I2
I20
I1
I24
tp765
a(I4
I6
I2
I8
tp766
a(I1
I1
I2
I21
tp767
a(I3
I20
I2
I5
tp768
a(I4
I24
I3
I7
tp769
a(I3
I13
I2
I22
tp770
a(I3
I8
I2
I14
tp771
a(I4
I11
I3
I0
tp772
a(I4
I1
I3
I3
tp773
a(I1
I17
I2
I19
tp774
a(I4
I10
I3
I15
tp775
a(I2
I1
I1
I2
tp776
a(I4
I22
I3
I10
tp777
a(I4
I23
I1
I1
tp778
a(I4
I18
I3
I9
tp779
a(I1
I9
I2
I5
tp780
a(I4
I13
I1
I1
tp781
a(I4
I9
I3
I6
tp782
a(I2
I4
I3
I2
tp783
a(I4
I23
I3
I21
tp784
a(I3
I14
I2
I10
tp785
a(I4
I21
I3
I11
tp786
a(I3
I4
I2
I15
tp787
a(I4
I15
I2
I2
tp788
a(I4
I10
I3
I23
tp789
a(I2
I11
I1
I14
tp790
a(I4
I5
I2
I15
tp791
a(I3
I11
I2
I14
tp792
a(I4
I12
I3
I19
tp793
a(I3
I8
I2
I6
tp794
a(I1
I10
I2
I2
tp795
a(I4
I7
I3
I19
tp796
a(I4
I2
I2
I14
tp797
a(I2
I24
I1
I10
tp798
a(I3
I14
I2
I18
tp799
a(I1
I19
I2
I5
tp800
a(I4
I13
I2
I4
tp801
a(I3
I15
I4
I0
tp802
a(I4
I23
I2
I4
tp803
a(I3
I9
I2
I24
tp804
a(I4
I4
I2
I10
tp805
a(I4
I10
I2
I1
tp806
a(I4
I7
I3
I11
tp807
a(I2
I12
I1
I18
tp808
a(I1
I5
I2
I6
tp809
a(I3
I24
I2
I20
tp810
a(I2
I17
I1
I20
tp811
a(I4
I16
I2
I8
tp812
a(I4
I14
I3
I21
tp813
a(I4
I6
I3
I24
tp814
a(I4
I2
I1
I7
tp815
a(I4
I15
I3
I6
tp816
a(I4
I11
I1
I3
tp817
a(I4
I8
I2
I7
tp818
a(I4
I20
I2
I8
tp819
a(I2
I19
I1
I15
tp820
a(I2
I1
I3
I22
tp821
a(I4
I14
I3
I13
tp822
a(I4
I4
I3
I14
tp823
a(I3
I21
I2
I24
tp824
a(I4
I6
I2
I20
tp825
a(I4
I13
I3
I0
tp826
a(I1
I21
I2
I12
tp827
a(I2
I14
I1
I19
tp828
a(I3
I10
I2
I0
tp829
a(I2
I19
I1
I23
tp830
a(I1
I1
I2
I12
tp831
a(I4
I23
I2
I24
tp832
a(I4
I12
I3
I3
tp833
a(I1
I4
I2
I24
tp834
a(I3
I7
I2
I12
tp835
a(I3
I22
I2
I8
tp836
a(I4
I6
I2
I12
tp837
a(I4
I17
I3
I8
tp838
a(I3
I22
I2
I24
tp839
a(I4
I11
I2
I5
tp840
a(I4
I8
I1
I1
tp841
a(I2
I3
I3
I0
tp842
a(I4
I23
I2
I0
tp843
a(I3
I15
I2
I7
tp844
a(I1
I4
I2
I0
tp845
a(I4
I16
I3
I11
tp846
a(I1
I14
I2
I1
tp847
a(I2
I20
I1
I9
tp848
a(I2
I6
I1
I12
tp849
a(I2
I2
I3
I3
tp850
a(I4
I17
I3
I16
tp851
a(I1
I1
I2
I4
tp852
a(I2
I9
I1
I14
tp853
a(I4
I16
I3
I19
tp854
a(I3
I19
I2
I20
tp855
a(I3
I17
I2
I10
tp856
a(I2
I20
I1
I17
tp857
a(I4
I12
I2
I1
tp858
a(I3
I20
I2
I11
tp859
a(I2
I9
I1
I22
tp860
a(I4
I24
I3
I8
tp861
a(I3
I3
I2
I18
tp862
a(I3
I13
I2
I17
tp863
a(I4
I4
I2
I18
tp864
a(I1
I17
I2
I10
tp865
a(I3
I4
I2
I24
tp866
a(I4
I9
I2
I3
tp867
a(I4
I10
I3
I4
tp868
a(I4
I22
I3
I3
tp869
a(I3
I3
I2
I10
tp870
a(I3
I17
I2
I18
tp871
a(I2
I17
I4
I0
tp872
a(I4
I4
I2
I22
tp873
a(I4
I9
I3
I1
tp874
a(I2
I10
I1
I18
tp875
a(I3
I14
I2
I3
tp876
a(I4
I21
I3
I2
tp877
a(I4
I16
I2
I17
tp878
a(I3
I18
I2
I6
tp879
a(I4
I15
I2
I11
tp880
a(I4
I8
I3
I2
tp881
a(I4
I5
I2
I8
tp882
a(I3
I11
I2
I5
tp883
a(I4
I20
I3
I5
tp884
a(I3
I17
I2
I22
tp885
a(I4
I3
I1
I15
tp886
a(I2
I24
I1
I3
tp887
a(I4
I17
I1
I0
tp888
a(I1
I5
I2
I21
tp889
a(I3
I22
I4
I0
tp890
a(I1
I19
I2
I12
tp891
a(I2
I21
I3
I2
tp892
a(I3
I16
I2
I24
tp893
a(I4
I6
I3
I9
tp894
a(I4
I2
I1
I16
tp895
a(I2
I13
I1
I8
tp896
a(I1
I24
I2
I3
tp897
a(I3
I9
I2
I3
tp898
a(I4
I3
I3
I20
tp899
a(I1
I2
I2
I0
tp900
a(I4
I15
I3
I21
tp901
a(I2
I20
I3
I1
tp902
a(I4
I22
I2
I5
tp903
a(I3
I12
I2
I21
tp904
a(I3
I24
I2
I13
tp905
a(I4
I9
I2
I15
tp906
a(I4
I14
I3
I18
tp907
a(I1
I16
I2
I4
tp908
a(I3
I20
I2
I6
tp909
a(I4
I3
I3
I16
tp910
a(I3
I3
I4
I0
tp911
a(I3
I21
I2
I11
tp912
a(I4
I13
I3
I19
tp913
a(I4
I8
I2
I14
tp914
a(I3
I10
I2
I17
tp915
a(I4
I20
I2
I3
tp916
a(I1
I7
I2
I3
tp917
a(I2
I1
I3
I13
tp918
a(I4
I14
I3
I10
tp919
a(I4
I12
I2
I5
tp920
a(I4
I4
I3
I23
tp921
a(I4
I22
I1
I0
tp922
a(I3
I21
I2
I19
tp923
a(I2
I18
I1
I13
tp924
a(I4
I13
I3
I11
tp925
a(I2
I14
I1
I8
tp926
a(I3
I10
I2
I9
tp927
a(I4
I18
I3
I2
tp928
a(I4
I18
I2
I15
tp929
a(I1
I4
I2
I17
tp930
a(I3
I7
I2
I11
tp931
a(I1
I12
I2
I12
tp932
a(I4
I3
I3
I24
tp933
a(I2
I18
I1
I21
tp934
a(I1
I21
I2
I19
tp935
a(I4
I12
I2
I13
tp936
a(I3
I19
I2
I3
tp937
a(I2
I20
I1
I2
tp938
a(I4
I12
I2
I16
tp939
a(I2
I6
I1
I21
tp940
a(I2
I2
I3
I4
tp941
a(I3
I20
I2
I15
tp942
a(I2
I13
I3
I0
tp943
a(I4
I9
I2
I4
tp944
a(I4
I16
I3
I20
tp945
a(I3
I13
I2
I0
tp946
a(I4
I11
I3
I14
tp947
a(I2
I16
I3
I0
tp948
a(I3
I17
I2
I13
tp949
a(I4
I1
I3
I13
tp950
a(I3
I20
I2
I23
tp951
a(I4
I2
I3
I16
tp952
a(I2
I9
I1
I17
tp953
a(I4
I13
I2
I21
tp954
a(I3
I13
I2
I24
tp955
a(I4
I11
I3
I22
tp956
a(I2
I22
I1
I3
tp957
a(I4
I23
I3
I11
tp958
a(I2
I8
I1
I18
tp959
a(I4
I16
I2
I0
tp960
a(I3
I4
I2
I17
tp961
a(I4
I15
I2
I24
tp962
a(I4
I13
I2
I23
tp963
a(I3
I11
I2
I20
tp964
a(I4
I20
I3
I22
tp965
a(I4
I2
I2
I4
tp966
a(I3
I14
I2
I24
tp967
a(I4
I21
I3
I5
tp968
a(I3
I8
I4
I0
tp969
a(I4
I19
I2
I16
tp970
a(I4
I8
I3
I11
tp971
a(I4
I5
I2
I17
tp972
a(I4
I20
I3
I14
tp973
a(I3
I23
I2
I20
tp974
a(I4
I7
I3
I1
tp975
a(I4
I3
I1
I6
tp976
a(I1
I5
I2
I12
tp977
a(I3
I12
I2
I6
tp978
a(I4
I9
I1
I2
tp979
a(I4
I16
I2
I5
tp980
a(I1
I15
I2
I15
tp981
a(I4
I2
I1
I9
tp982
a(I2
I13
I1
I3
tp983
a(I4
I23
I3
I12
tp984
a(I3
I9
I2
I10
tp985
a(I1
I17
I2
I2
tp986
a(I4
I5
I3
I15
tp987
a(I4
I22
I2
I12
tp988
a(I4
I16
I2
I1
tp989
a(I3
I24
I2
I6
tp990
a(I2
I9
I3
I1
tp991
a(I4
I24
I1
I1
tp992
a(I4
I17
I2
I6
tp993
a(I3
I4
I2
I16
tp994
a(I4
I1
I1
I5
tp995
a(I2
I22
I3
I0
tp996
a(I4
I5
I3
I23
tp997
a(I2
I1
I3
I4
tp998
a(I4
I12
I3
I13
tp999
a(I4
I4
I3
I16
tp1000
a(I1
I18
I2
I3
tp1001
a(I2
I18
I1
I2
tp1002
a(I4
I6
I2
I2
tp1003
a(I1
I21
I2
I2
tp1004
a(I2
I14
I3
I0
tp1005
a(I4
I3
I2
I22
tp1006
a(I2
I7
I1
I13
tp1007
a(I4
I23
I2
I14
tp1008
a(I4
I18
I3
I11
tp1009
a(I3
I15
I2
I13
tp1010
a(I1
I4
I2
I22
tp1011
a(I3
I7
I2
I18
tp1012
a(I3
I4
I2
I8
tp1013
a(I2
I2
I3
I21
tp1014
a(I3
I4
I4
I0
tp1015
a(I1
I23
I2
I4
tp1016
a(I3
I8
I2
I24
tp1017
a(I4
I11
I2
I19
tp1018
a(I2
I7
I1
I21
tp1019
a(I4
I6
I1
I3
tp1020
a(I4
I21
I2
I16
tp1021
a(I4
I16
I3
I5
tp1022
a(I3
I19
I2
I10
tp1023
a(I1
I14
I2
I19
tp1024
a(I2
I1
I4
I0
tp1025
a(I4
I3
I3
I2
tp1026
a(I3
I4
I2
I12
tp1027
a(I2
I6
I1
I18
tp1028
a(I2
I2
I3
I13
tp1029
a(I1
I1
I2
I18
tp1030
a(I3
I20
I2
I0
tp1031
a(I4
I2
I3
I1
tp1032
a(I2
I9
I1
I0
tp1033
a(I4
I24
I3
I2
tp1034
a(I3
I13
I2
I11
tp1035
a(I4
I11
I3
I5
tp1036
a(I3
I17
I2
I4
tp1037
a(I4
I5
I1
I3
tp1038
a(I4
I1
I3
I4
tp1039
a(I2
I8
I1
I3
tp1040
a(I2
I5
I3
I2
tp1041
a(I2
I20
I4
I0
tp1042
a(I1
I20
I2
I4
tp1043
a(I2
I15
I3
I1
tp1044
a(I3
I3
I2
I0
tp1045
a(I1
I8
I2
I3
tp1046
a(I2
I22
I1
I8
tp1047
a(I2
I4
I3
I1
tp1048
a(I4
I23
I3
I18
tp1049
a(I3
I14
I2
I9
tp1050
a(I4
I21
I3
I20
tp1051
a(I3
I6
I2
I20
tp1052
a(I3
I18
I2
I12
tp1053
a(I4
I15
I2
I1
tp1054
a(I4
I10
I3
I18
tp1055
a(I2
I11
I1
I3
tp1056
a(I4
I5
I2
I2
tp1057
a(I1
I22
I2
I2
tp1058
a(I1
I10
I2
I5
tp1059
a(I4
I7
I3
I16
tp1060
a(I4
I2
I2
I3
tp1061
a(I3
I19
I4
I0
tp1062
a(I4
I9
I3
I19
tp1063
a(I2
I10
I1
I0
tp1064
a(I3
I14
I2
I17
tp1065
a(I1
I13
I2
I0
tp1066
a(I3
I16
I2
I18
tp1067
a(I2
I13
I1
I18
tp1068
a(I3
I23
I2
I19
tp1069
a(I4
I7
I3
I8
tp1070
a(I4
I3
I1
I1
tp1071
a(I4
I3
I1
I19
tp1072
a(I4
I24
I2
I12
tp1073
a(I1
I5
I2
I11
tp1074
a(I3
I12
I2
I15
tp1075
a(I3
I24
I2
I23
tp1076
a(I2
I17
I1
I9
tp1077
a(I3
I16
I2
I10
tp1078
a(I1
I19
I2
I4
tp1079
a(I3
I23
I2
I11
tp1080
a(I4
I15
I3
I3
tp1081
a(I2
I16
I1
I10
tp1082
a(I3
I14
I2
I23
tp1083
a(I4
I22
I2
I19
tp1084
a(I4
I20
I2
I21
tp1085
a(I4
I14
I3
I0
tp1086
a(I3
I13
I4
I0
tp1087
a(I4
I4
I3
I1
tp1088
a(I4
I6
I2
I17
tp1089
a(I4
I8
I2
I16
tp1090
a(I2
I4
I1
I2
tp1091
a(I2
I14
I1
I22
tp1092
a(I3
I10
I2
I7
tp1093
a(I4
I13
I2
I19
tp1094
a(I2
I24
I4
I0
tp1095
a(I2
I1
I3
I3
tp1096
a(I4
I3
I2
I7
tp1097
a(I4
I12
I3
I6
tp1098
a(I1
I12
I2
I2
tp1099
a(I4
I5
I2
I24
tp1100
a(I4
I6
I2
I9
tp1101
a(I2
I10
I3
I1
tp1102
a(I3
I22
I2
I23
tp1103
a(I4
I11
I2
I0
tp1104
a(I4
I13
I2
I1
tp1105
a(I4
I23
I2
I7
tp1106
a(I3
I15
I2
I4
tp1107
a(I1
I4
I2
I15
tp1108
a(I3
I5
I2
I7
tp1109
a(I1
I14
I2
I12
tp1110
a(I4
I14
I2
I4
tp1111
a(I2
I20
I1
I12
tp1112
a(I2
I6
I1
I3
tp1113
a(I4
I4
I2
I7
tp1114
a(I4
I17
I3
I21
tp1115
a(I1
I1
I2
I1
tp1116
a(I3
I22
I2
I15
tp1117
a(I1
I11
I2
I0
tp1118
a(I4
I24
I3
I19
tp1119
a(I1
I16
I4
I0
tp1120
a(I3
I19
I2
I17
tp1121
a(I4
I3
I3
I9
tp1122
a(I4
I1
I3
I23
tp1123
a(I4
I12
I2
I2
tp1124
a(I2
I23
I1
I10
tp1125
a(I3
I24
I4
I0
tp1126
a(I4
I14
I1
I1
tp1127
a(I4
I24
I3
I11
tp1128
a(I3
I13
I2
I18
tp1129
a(I4
I23
I3
I1
tp1130
a(I4
I13
I3
I1
tp1131
a(I3
I6
I2
I5
tp1132
a(I2
I13
I4
I0
tp1133
a(I4
I15
I2
I22
tp1134
a(I4
I10
I3
I3
tp1135
a(I4
I7
I2
I21
tp1136
a(I2
I11
I1
I18
tp1137
a(I4
I19
I2
I11
tp1138
a(I4
I22
I3
I6
tp1139
a(I4
I10
I2
I24
tp1140
a(I3
I3
I2
I7
tp1141
a(I4
I9
I3
I2
tp1142
a(I4
I24
I2
I17
tp1143
a(I4
I21
I3
I15
tp1144
a(I1
I19
I2
I17
tp1145
a(I3
I4
I2
I3
tp1146
a(I3
I24
I2
I21
tp1147
a(I4
I15
I2
I14
tp1148
a(I4
I12
I1
I2
tp1149
a(I2
I11
I1
I10
tp1150
a(I4
I5
I2
I11
tp1151
a(I4
I20
I3
I24
tp1152
a(I4
I7
I3
I23
tp1153
a(I3
I23
I2
I13
tp1154
a(I2
I24
I1
I14
tp1155
a(I2
I10
I1
I9
tp1156
a(I3
I14
I2
I22
tp1157
a(I3
I24
I2
I17
tp1158
a(I4
I6
I3
I12
tp1159
a(I4
I2
I1
I19
tp1160
a(I2
I13
I1
I21
tp1161
a(I2
I19
I4
I0
tp1162
a(I1
I2
I2
I3
tp1163
a(I4
I15
I3
I18
tp1164
a(I4
I7
I3
I15
tp1165
a(I4
I22
I2
I2
tp1166
a(I1
I5
I2
I2
tp1167
a(I3
I12
I2
I16
tp1168
a(I1
I15
I2
I1
tp1169
a(I4
I14
I3
I17
tp1170
a(I4
I6
I3
I20
tp1171
a(I4
I19
I2
I1
tp1172
a(I2
I16
I1
I19
tp1173
a(I4
I23
I1
I0
tp1174
a(I3
I10
I2
I20
tp1175
a(I4
I20
I2
I12
tp1176
a(I3
I20
I4
I0
tp1177
a(I4
I17
I2
I9
tp1178
a(I1
I7
I2
I4
tp1179
a(I2
I19
I1
I11
tp1180
a(I2
I1
I3
I18
tp1181
a(I4
I14
I3
I9
tp1182
a(I4
I10
I1
I0
tp1183
a(I4
I4
I3
I10
tp1184
a(I4
I22
I1
I3
tp1185
a(I4
I17
I2
I16
tp1186
a(I1
I12
I2
I19
tp1187
a(I3
I21
I2
I20
tp1188
a(I2
I18
I1
I8
tp1189
a(I4
I6
I2
I24
tp1190
a(I4
I19
I3
I2
tp1191
a(I2
I14
I1
I15
tp1192
a(I3
I10
I2
I12
tp1193
a(I4
I17
I2
I13
tp1194
a(I4
I20
I2
I23
tp1195
a(I4
I23
I2
I20
tp1196
a(I4
I18
I3
I1
tp1197
a(I3
I7
I2
I8
tp1198
a(I3
I5
I2
I22
tp1199
a(I3
I1
I4
I0
tp1200
a(I4
I14
I2
I19
tp1201
a(I2
I18
I1
I16
tp1202
a(I4
I21
I1
I3
tp1203
a(I2
I21
I1
I2
tp1204
a(I3
I15
I2
I3
tp1205
a(I2
I4
I4
I0
tp1206
a(I4
I20
I1
I0
tp1207
a(I4
I16
I3
I15
tp1208
a(I3
I19
I2
I0
tp1209
a(I1
I14
I2
I5
tp1210
a(I2
I24
I3
I2
tp1211
a(I2
I6
I1
I8
tp1212
a(I2
I2
I3
I7
tp1213
a(I1
I1
I2
I24
tp1214
a(I4
I19
I3
I21
tp1215
a(I2
I17
I3
I0
tp1216
a(I3
I20
I2
I10
tp1217
a(I2
I9
I1
I10
tp1218
a(I4
I24
I3
I20
tp1219
a(I4
I21
I2
I2
tp1220
a(I4
I16
I3
I23
tp1221
a(I1
I6
I2
I2
tp1222
a(I3
I19
I2
I24
tp1223
a(I3
I17
I2
I14
tp1224
a(I4
I1
I3
I14
tp1225
a(I4
I18
I2
I3
tp1226
a(I3
I20
I2
I18
tp1227
a(I4
I7
I2
I10
tp1228
a(I2
I9
I1
I18
tp1229
a(I4
I22
I3
I23
tp1230
a(I3
I3
I2
I22
tp1231
a(I2
I22
I1
I6
tp1232
a(I4
I23
I3
I8
tp1233
a(I4
I19
I1
I1
tp1234
a(I4
I10
I1
I1
tp1235
a(I3
I6
I2
I10
tp1236
a(I4
I10
I3
I24
tp1237
a(I4
I8
I2
I22
tp1238
a(I3
I11
I2
I17
tp1239
a(I3
I3
I2
I14
tp1240
a(I4
I9
I3
I13
tp1241
a(I1
I21
I4
I0
tp1242
a(I2
I10
I1
I22
tp1243
a(I3
I14
I2
I7
tp1244
a(I4
I21
I3
I6
tp1245
a(I4
I8
I3
I6
tp1246
a(I4
I5
I2
I20
tp1247
a(I4
I20
I3
I1
tp1248
a(I4
I2
I2
I17
tp1249
a(I2
I24
I1
I7
tp1250
a(I1
I5
I2
I17
tp1251
a(I2
I17
I1
I3
tp1252
a(I3
I16
I2
I4
tp1253
a(I2
I8
I4
I0
tp1254
a(I4
I2
I1
I20
tp1255
a(I4
I19
I2
I7
tp1256
a(I4
I16
I1
I3
tp1257
a(I3
I9
I2
I7
tp1258
a(I4
I15
I3
I9
tp1259
a(I4
I10
I2
I20
tp1260
a(I4
I5
I3
I8
tp1261
a(I3
I24
I2
I9
tp1262
a(I2
I23
I3
I0
tp1263
a(I1
I16
I2
I0
tp1264
a(I4
I17
I2
I1
tp1265
a(I3
I21
I2
I7
tp1266
a(I2
I16
I1
I20
tp1267
a(I4
I19
I3
I17
tp1268
a(I4
I5
I3
I16
tp1269
a(I1
I7
I2
I15
tp1270
a(I2
I19
I1
I2
tp1271
a(I2
I1
I3
I9
tp1272
a(I4
I4
I3
I19
tp1273
a(I4
I18
I3
I22
tp1274
a(I4
I1
I1
I18
tp1275
a(I4
I19
I3
I9
tp1276
a(I2
I8
I1
I23
tp1277
a(I4
I3
I2
I21
tp1278
a(I2
I7
I1
I10
tp1279
a(I4
I23
I2
I13
tp1280
a(I4
I18
I3
I6
tp1281
a(I1
I4
I2
I21
tp1282
a(I3
I7
I2
I23
tp1283
a(I4
I14
I2
I10
tp1284
a(I2
I2
I3
I16
tp1285
a(I3
I22
I2
I5
tp1286
a(I2
I7
I1
I18
tp1287
a(I4
I16
I3
I0
tp1288
a(I1
I6
I2
I19
tp1289
a(I3
I19
I2
I7
tp1290
a(I4
I3
I1
I20
tp1291
a(I4
I12
I2
I20
tp1292
a(I2
I6
I1
I17
tp1293
a(I2
I2
I3
I8
tp1294
a(I3
I20
I2
I3
tp1295
a(I4
I9
I2
I8
tp1296
a(I4
I21
I2
I11
tp1297
a(I3
I13
I2
I12
tp1298
a(I3
I22
I2
I17
tp1299
a(I4
I11
I3
I10
tp1300
a(I4
I5
I1
I0
tp1301
a(I4
I18
I2
I10
tp1302
a(I2
I8
I1
I14
tp1303
a(I2
I15
I1
I9
tp1304
a(I4
I10
I3
I9
tp1305
a(I2
I19
I3
I1
tp1306
a(I4
I7
I2
I3
tp1307
a(I4
I2
I3
I20
tp1308
a(I1
I20
I2
I3
tp1309
a(I2
I15
I3
I2
tp1310
a(I1
I9
I2
I4
tp1311
a(I4
I11
I3
I18
tp1312
a(I2
I3
I4
I0
tp1313
a(I2
I18
I3
I2
tp1314
a(I1
I17
I2
I5
tp1315
a(I4
I21
I3
I17
tp1316
a(I3
I6
I2
I19
tp1317
a(I3
I18
I2
I19
tp1318
a(I4
I15
I2
I4
tp1319
a(I4
I10
I3
I17
tp1320
a(I2
I11
I1
I0
tp1321
a(I3
I11
I2
I8
tp1322
a(I1
I12
I4
I0
tp1323
a(I4
I20
I3
I18
tp1324
a(I4
I12
I3
I20
tp1325
a(I4
I2
I2
I0
tp1326
a(I2
I24
I1
I16
tp1327
a(I4
I9
I3
I20
tp1328
a(I4
I24
I2
I3
tp1329
a(I1
I13
I2
I5
tp1330
a(I4
I13
I2
I10
tp1331
a(I2
I22
I4
I0
tp1332
a(I4
I20
I3
I10
tp1333
a(I3
I9
I2
I22
tp1334
a(I4
I15
I3
I24
tp1335
a(I4
I10
I2
I11
tp1336
a(I4
I2
I2
I24
tp1337
a(I1
I5
I2
I8
tp1338
a(I3
I12
I2
I10
tp1339
a(I2
I17
I1
I10
tp1340
a(I4
I6
I3
I2
tp1341
a(I4
I2
I1
I13
tp1342
a(I2
I13
I1
I7
tp1343
a(I3
I9
I2
I14
tp1344
a(I4
I4
I2
I9
tp1345
a(I4
I15
I3
I0
tp1346
a(I3
I17
I4
I0
tp1347
a(I4
I5
I3
I3
tp1348
a(I2
I12
I1
I0
tp1349
a(I2
I1
I3
I24
tp1350
a(I4
I14
I3
I7
tp1351
a(I2
I5
I1
I2
tp1352
a(I4
I4
I2
I13
tp1353
a(I4
I1
I1
I1
tp1354
a(I2
I8
I3
I2
tp1355
a(I2
I4
I1
I5
tp1356
a(I2
I14
I1
I21
tp1357
a(I4
I18
I1
I3
tp1358
a(I4
I20
I1
I1
tp1359
a(I2
I1
I3
I0
tp1360
a(I4
I3
I2
I2
tp1361
a(I1
I23
I2
I5
tp1362
a(I4
I12
I3
I9
tp1363
a(I3
I7
I2
I6
tp1364
a(I1
I12
I2
I1
tp1365
a(I4
I4
I2
I1
tp1366
a(I2
I18
I1
I6
tp1367
a(I4
I17
I3
I14
tp1368
a(I1
I9
I2
I3
tp1369
a(I2
I21
I1
I20
tp1370
a(I1
I23
I2
I1
tp1371
a(I4
I18
I3
I15
tp1372
a(I3
I15
I2
I9
tp1373
a(I1
I4
I2
I10
tp1374
a(I1
I14
I2
I15
tp1375
a(I4
I14
I2
I1
tp1376
a(I2
I20
I1
I15
tp1377
a(I4
I4
I2
I0
tp1378
a(I4
I17
I3
I22
tp1379
a(I1
I23
I2
I0
tp1380
a(I3
I8
I2
I20
tp1381
a(I4
I24
I2
I8
tp1382
a(I2
I21
I1
I12
tp1383
a(I3
I19
I2
I14
tp1384
a(I3
I17
I2
I16
tp1385
a(I4
I15
I1
I3
tp1386
a(I2
I20
I1
I23
tp1387
a(I1
I5
I4
I0
tp1388
a(I1
I1
I2
I22
tp1389
a(I3
I20
I2
I4
tp1390
a(I4
I9
I2
I17
tp1391
a(I4
I24
I3
I6
tp1392
a(I1
I6
I2
I12
tp1393
a(I4
I11
I3
I1
tp1394
a(I4
I1
I3
I0
tp1395
a(I2
I8
I1
I7
tp1396
a(I3
I6
I2
I0
tp1397
a(I4
I10
I3
I14
tp1398
a(I4
I22
I3
I5
tp1399
a(I3
I3
I2
I4
tp1400
a(I1
I18
I4
I0
tp1401
a(I4
I4
I2
I17
tp1402
a(I4
I9
I3
I7
tp1403
a(I4
I23
I3
I22
tp1404
a(I3
I14
I2
I13
tp1405
a(I3
I6
I2
I24
tp1406
a(I3
I18
I2
I8
tp1407
a(I4
I9
I2
I0
tp1408
a(I4
I15
I2
I13
tp1409
a(I4
I10
I3
I22
tp1410
a(I4
I12
I1
I1
tp1411
a(I2
I7
I3
I0
tp1412
a(I4
I5
I2
I14
tp1413
a(I3
I11
I2
I15
tp1414
a(I3
I1
I2
I2
tp1415
a(I1
I10
I2
I1
tp1416
a(I4
I7
I3
I20
tp1417
a(I4
I2
I2
I15
tp1418
a(I4
I4
I2
I21
tp1419
a(I3
I14
I2
I21
tp1420
a(I2
I15
I4
I0
tp1421
a(I1
I19
I2
I10
tp1422
a(I4
I13
I2
I3
tp1423
a(I1
I24
I2
I5
tp1424
a(I4
I3
I1
I16
tp1425
a(I4
I10
I2
I2
tp1426
a(I4
I7
I3
I12
tp1427
a(I1
I5
I2
I7
tp1428
a(I3
I12
I2
I19
tp1429
a(I4
I19
I2
I9
tp1430
a(I1
I15
I2
I2
tp1431
a(I4
I14
I3
I20
tp1432
a(I4
I2
I1
I6
tp1433
a(I4
I18
I2
I6
tp1434
a(I3
I20
I2
I7
tp1435
a(I4
I11
I1
I0
tp1436
a(I2
I16
I1
I14
tp1437
a(I4
I8
I2
I4
tp1438
a(I4
I22
I2
I23
tp1439
a(I2
I12
I1
I9
tp1440
a(I2
I19
I1
I8
tp1441
a(I2
I1
I3
I23
tp1442
a(I4
I14
I3
I12
tp1443
a(I4
I10
I1
I3
tp1444
a(I4
I12
I2
I4
tp1445
a(I4
I4
I3
I13
tp1446
a(I4
I3
I3
I19
tp1447
a(I4
I6
I2
I21
tp1448
a(I4
I19
I3
I7
tp1449
a(I2
I14
I1
I18
tp1450
a(I3
I10
I2
I3
tp1451
a(I3
I0
I2
I0
tp1452
a(I2
I19
I1
I16
tp1453
a(I4
I3
I2
I11
tp1454
a(I4
I12
I3
I2
tp1455
a(I3
I7
I2
I13
tp1456
a(I4
I9
I1
I3
tp1457
a(I4
I6
I2
I13
tp1458
a(I4
I21
I1
I0
tp1459
a(I4
I17
I3
I9
tp1460
a(I4
I11
I2
I4
tp1461
a(I4
I8
I1
I0
tp1462
a(I2
I7
I1
I24
tp1463
a(I2
I3
I3
I1
tp1464
a(I4
I1
I2
I5
tp1465
a(I3
I15
I2
I0
tp1466
a(I4
I16
I3
I10
tp1467
a(I3
I20
I2
I19
tp1468
a(I3
I5
I2
I3
tp1469
a(I1
I14
I2
I0
tp1470
a(I2
I24
I3
I1
tp1471
a(I2
I20
I1
I8
tp1472
a(I2
I6
I1
I15
tp1473
a(I2
I2
I3
I2
tp1474
a(I1
I1
I2
I5
tp1475
a(I1
I11
I2
I4
tp1476
a(I2
I9
I1
I15
tp1477
a(I4
I24
I3
I23
tp1478
a(I4
I21
I2
I5
tp1479
a(I2
I8
I1
I2
tp1480
a(I3
I19
I2
I21
tp1481
a(I3
I17
I2
I11
tp1482
a(I2
I20
I1
I16
tp1483
a(I4
I1
I3
I19
tp1484
a(I4
I18
I2
I0
tp1485
a(I2
I23
I1
I14
tp1486
a(I4
I2
I3
I10
tp1487
a(I2
I9
I1
I23
tp1488
a(I2
I6
I4
I0
tp1489
a(I3
I3
I2
I19
tp1490
a(I4
I11
I3
I24
tp1491
a(I4
I19
I1
I2
tp1492
a(I2
I8
I1
I24
tp1493
a(I4
I16
I2
I6
tp1494
a(I4
I16
I2
I12
tp1495
a(I4
I15
I2
I18
tp1496
a(I1
I9
I4
I0
tp1497
a(I4
I7
I2
I17
tp1498
a(I4
I22
I3
I2
tp1499
a(I3
I3
I2
I11
tp1500
a(I4
I9
I3
I14
tp1501
a(I4
I21
I3
I3
tp1502
a(I3
I4
I2
I7
tp1503
a(I4
I8
I3
I1
tp1504
a(I4
I5
I2
I23
tp1505
a(I3
I11
I2
I6
tp1506
a(I4
I20
I3
I4
tp1507
a(I4
I2
I2
I22
tp1508
a(I2
I24
I1
I2
tp1509
a(I4
I17
I1
I1
tp1510
a(I2
I10
I1
I13
tp1511
a(I1
I5
I2
I22
tp1512
a(I4
I16
I2
I4
tp1513
a(I3
I16
I2
I7
tp1514
a(I4
I6
I3
I8
tp1515
a(I4
I2
I1
I23
tp1516
a(I2
I13
I1
I9
tp1517
a(I1
I24
I2
I2
tp1518
a(I3
I23
I2
I6
tp1519
a(I1
I17
I2
I1
tp1520
a(I2
I20
I3
I0
tp1521
a(I1
I23
I4
I0
tp1522
a(I4
I22
I2
I6
tp1523
a(I3
I12
I2
I20
tp1524
a(I4
I12
I2
I14
tp1525
a(I3
I24
I2
I12
tp1526
a(I4
I6
I3
I16
tp1527
a(I2
I8
I1
I22
tp1528
a(I3
I18
I2
I23
tp1529
a(I4
I13
I3
I16
tp1530
a(I3
I10
I2
I16
tp1531
a(I4
I20
I2
I0
tp1532
a(I1
I7
I2
I0
tp1533
a(I2
I1
I3
I14
tp1534
a(I2
I10
I4
I0
tp1535
a(I4
I4
I3
I22
tp1536
a(I4
I17
I2
I20
tp1537
a(I4
I24
I2
I23
tp1538
a(I2
I18
I1
I12
tp1539
a(I3
I4
I2
I21
tp1540
a(I4
I13
I3
I8
tp1541
a(I1
I21
I2
I4
tp1542
a(I2
I14
I1
I11
tp1543
a(I3
I10
I2
I8
tp1544
a(I4
I3
I2
I16
tp1545
a(I4
I23
I2
I16
tp1546
a(I2
I15
I1
I20
tp1547
a(I1
I4
I2
I16
tp1548
a(I3
I7
I2
I20
tp1549
a(I1
I12
I2
I15
tp1550
a(I3
I5
I2
I18
tp1551
a(I4
I14
I2
I23
tp1552
a(I4
I24
I2
I19
tp1553
a(I2
I18
I1
I20
tp1554
a(I3
I18
I2
I15
tp1555
a(I2
I2
I3
I19
tp1556
a(I4
I17
I3
I0
tp1557
a(I3
I22
I2
I0
tp1558
a(I2
I21
I1
I6
tp1559
a(I4
I3
I1
I12
tp1560
a(I4
I21
I2
I22
tp1561
a(I4
I16
I3
I3
tp1562
a(I3
I19
I2
I4
tp1563
a(I1
I2
I4
I0
tp1564
a(I4
I19
I2
I13
tp1565
a(I3
I18
I2
I11
tp1566
a(I4
I18
I2
I23
tp1567
a(I2
I2
I3
I11
tp1568
a(I3
I20
I2
I14
tp1569
a(I2
I13
I3
I1
tp1570
a(I2
I9
I1
I6
tp1571
a(I4
I21
I2
I14
tp1572
a(I4
I12
I2
I9
tp1573
a(I2
I8
I1
I9
tp1574
a(I3
I20
I2
I22
tp1575
a(I2
I19
I3
I2
tp1576
a(I4
I7
I2
I6
tp1577
a(I4
I2
I3
I19
tp1578
a(I4
I22
I3
I19
tp1579
a(I1
I8
I2
I5
tp1580
a(I4
I11
I3
I23
tp1581
a(I2
I22
I1
I2
tp1582
a(I3
I18
I2
I3
tp1583
a(I2
I8
I1
I17
tp1584
a(I3
I6
I2
I14
tp1585
a(I3
I18
I2
I22
tp1586
a(I3
I8
I2
I11
tp1587
a(I3
I11
I2
I21
tp1588
a(I4
I20
I3
I21
tp1589
a(I4
I2
I2
I5
tp1590
a(I2
I24
I1
I19
tp1591
a(I4
I24
I2
I4
tp1592
a(I2
I13
I1
I24
tp1593
a(I4
I8
I3
I10
tp1594
a(I4
I5
I2
I16
tp1595
a(I1
I19
I2
I3
tp1596
a(I4
I20
I3
I13
tp1597
a(I3
I9
I2
I19
tp1598
a(I4
I18
I2
I4
tp1599
a(I4
I7
I3
I2
tp1600
a(I4
I3
I1
I7
tp1601
a(I4
I24
I2
I15
tp1602
a(I1
I5
I2
I13
tp1603
a(I3
I16
I2
I0
tp1604
a(I4
I6
I3
I1
tp1605
a(I4
I2
I1
I8
tp1606
a(I2
I13
I1
I0
tp1607
a(I1
I14
I4
I0
tp1608
a(I3
I9
I2
I11
tp1609
a(I4
I15
I3
I13
tp1610
a(I4
I10
I2
I16
tp1611
a(I2
I16
I1
I0
tp1612
a(I4
I3
I1
I14
tp1613
a(I4
I5
I3
I12
tp1614
a(I2
I12
I1
I3
tp1615
a(I4
I20
I2
I19
tp1616
a(I1
I7
I2
I19
tp1617
a(I3
I24
I2
I5
tp1618
a(I2
I9
I3
I2
tp1619
a(I4
I24
I1
I0
tp1620
a(I4
I8
I3
I15
tp1621
a(I4
I17
I2
I5
tp1622
a(I3
I9
I2
I18
tp1623
a(I3
I21
I2
I3
tp1624
a(I2
I16
I1
I24
tp1625
a(I2
I8
I3
I1
tp1626
a(I4
I5
I3
I20
tp1627
a(I2
I14
I1
I24
tp1628
a(I2
I1
I3
I5
tp1629
a(I4
I3
I2
I1
tp1630
a(I4
I13
I2
I6
tp1631
a(I2
I15
I1
I3
tp1632
a(I4
I8
I3
I19
tp1633
a(I1
I18
I2
I2
tp1634
a(I3
I23
I2
I16
tp1635
a(I4
I6
I2
I3
tp1636
a(I1
I21
I2
I3
tp1637
a(I2
I14
I1
I0
tp1638
a(I1
I9
I2
I0
tp1639
a(I2
I21
I1
I17
tp1640
a(I2
I7
I1
I14
tp1641
a(I4
I23
I2
I9
tp1642
a(I4
I18
I3
I10
tp1643
a(I3
I15
I2
I14
tp1644
a(I1
I4
I2
I9
tp1645
a(I3
I7
I2
I19
tp1646
a(I3
I5
I2
I13
tp1647
a(I1
I14
I2
I10
tp1648
a(I4
I7
I1
I1
tp1649
a(I2
I2
I3
I20
tp1650
a(I1
I1
I2
I11
tp1651
a(I3
I22
I2
I9
tp1652
a(I2
I21
I1
I9
tp1653
a(I2
I7
I1
I22
tp1654
a(I4
I6
I1
I2
tp1655
a(I3
I15
I2
I22
tp1656
a(I4
I16
I3
I4
tp1657
a(I3
I19
I2
I11
tp1658
a(I4
I12
I2
I24
tp1659
a(I2
I2
I3
I12
tp1660
a(I1
I1
I2
I19
tp1661
a(I2
I23
I1
I20
tp1662
a(I4
I2
I3
I0
tp1663
a(I4
I15
I3
I16
tp1664
a(I4
I9
I2
I12
tp1665
a(I4
I24
I3
I1
tp1666
a(I1
I6
I2
I15
tp1667
a(I4
I11
I3
I6
tp1668
a(I2
I22
I1
I19
tp1669
a(I4
I1
I3
I5
tp1670
a(I1
I17
I2
I17
tp1671
a(I4
I10
I3
I13
tp1672
a(I4
I2
I3
I24
tp1673
a(I2
I11
I1
I20
tp1674
a(I4
I4
I1
I3
tp1675
a(I1
I8
I2
I2
tp1676
a(I3
I23
I2
I0
tp1677
a(I2
I4
I3
I0
tp1678
a(I4
I23
I3
I19
tp1679
a(I3
I14
I2
I8
tp1680
a(I1
I7
I4
I0
tp1681
a(I2
I14
I3
I1
tp1682
a(I3
I4
I2
I9
tp1683
a(I4
I15
I2
I0
tp1684
a(I4
I10
I3
I21
tp1685
a(I4
I5
I2
I1
tp1686
a(I3
I11
I2
I12
tp1687
a(I1
I22
I2
I1
tp1688
a(I1
I10
I2
I4
tp1689
a(I4
I7
I3
I17
tp1690
a(I4
I2
I2
I12
tp1691
a(I2
I24
I1
I20
tp1692
a(I2
I10
I1
I3
tp1693
a(I3
I14
I2
I16
tp1694
a(I1
I13
I2
I1
tp1695
a(I3
I16
I2
I17
tp1696
a(I2
I13
I1
I19
tp1697
a(I4
I15
I3
I12
tp1698
a(I4
I10
I2
I7
tp1699
a(I4
I7
I3
I9
tp1700
a(I2
I12
I1
I20
tp1701
a(I3
I12
I2
I14
tp1702
a(I3
I24
I2
I22
tp1703
a(I4
I2
I1
I1
tp1704
a(I2
I16
I1
I9
tp1705
a(I4
I20
I2
I10
tp1706
a(I2
I19
I1
I13
tp1707
a(I2
I1
I3
I20
tp1708
a(I4
I14
I3
I3
tp1709
a(I2
I5
I1
I6
tp1710
a(I4
I4
I3
I0
tp1711
a(I4
I6
I2
I18
tp1712
a(I4
I13
I3
I2
tp1713
a(I2
I14
I1
I17
tp1714
a(I3
I10
I2
I6
tp1715
a(I4
I12
I3
I5
tp1716
a(I4
I4
I3
I24
tp1717
a(I1
I12
I2
I5
tp1718
a(I4
I9
I1
I0
tp1719
a(I4
I6
I2
I10
tp1720
a(I3
I14
I4
I0
tp1721
a(I4
I17
I3
I10
tp1722
a(I2
I10
I3
I0
tp1723
a(I2
I21
I1
I24
tp1724
a(I4
I1
I2
I0
tp1725
a(I1
I4
I2
I14
tp1726
a(I3
I5
I2
I4
tp1727
a(I1
I14
I2
I3
tp1728
a(I4
I14
I2
I5
tp1729
a(I2
I20
I1
I11
tp1730
a(I2
I6
I1
I2
tp1731
a(I4
I17
I3
I18
tp1732
a(I1
I1
I2
I2
tp1733
a(I4
I19
I3
I20
tp1734
a(I3
I22
I2
I14
tp1735
a(I1
I11
I2
I1
tp1736
a(I4
I21
I2
I24
tp1737
a(I3
I19
I2
I18
tp1738
a(I3
I17
I2
I20
tp1739
a(I2
I20
I1
I19
tp1740
a(I4
I18
I2
I5
tp1741
a(I3
I20
I2
I24
tp1742
a(I4
I7
I2
I12
tp1743
a(I4
I2
I3
I9
tp1744
a(I4
I14
I1
I0
tp1745
a(I4
I9
I2
I21
tp1746
a(I4
I24
I3
I10
tp1747
a(I3
I13
I2
I19
tp1748
a(I2
I22
I1
I24
tp1749
a(I4
I23
I3
I2
tp1750
a(I3
I6
I2
I4
tp1751
a(I4
I10
I3
I2
tp1752
a(I4
I8
I2
I9
tp1753
a(I2
I11
I1
I19
tp1754
a(I4
I22
I3
I1
tp1755
a(I4
I9
I3
I3
tp1756
a(I2
I0
I1
I0
tp1757
a(I2
I10
I1
I16
tp1758
a(I4
I16
I2
I19
tp1759
a(I3
I18
I2
I4
tp1760
a(I4
I15
I2
I9
tp1761
a(I4
I5
I2
I10
tp1762
a(I3
I11
I2
I3
tp1763
a(I4
I20
I3
I7
tp1764
a(I4
I7
I3
I24
tp1765
a(I4
I2
I2
I11
tp1766
a(I2
I24
I1
I13
tp1767
a(I2
I21
I3
I0
tp1768
a(I1
I11
I4
I0
tp1769
a(I4
I2
I1
I18
tp1770
a(I2
I13
I1
I10
tp1771
a(I4
I8
I3
I20
tp1772
a(I1
I24
I2
I1
tp1773
a(I1
I2
I2
I2
tp1774
a(I4
I15
I3
I19
tp1775
a(I4
I6
I2
I22
tp1776
a(I4
I22
I2
I3
tp1777
a(I1
I5
I2
I3
tp1778
a(I3
I24
I2
I15
tp1779
a(I4
I14
I3
I16
tp1780
a(I4
I18
I3
I19
tp1781
a(I4
I19
I3
I13
tp1782
a(I2
I16
I1
I18
tp1783
a(I4
I8
I2
I0
tp1784
a(I4
I4
I2
I20
tp1785
a(I3
I10
I2
I23
tp1786
a(I1
I7
I2
I5
tp1787
a(I2
I1
I3
I19
tp1788
a(I4
I14
I3
I8
tp1789
a(I4
I4
I3
I9
tp1790
a(I4
I22
I1
I2
tp1791
a(I4
I18
I3
I23
tp1792
a(I2
I18
I1
I11
tp1793
a(I4
I19
I3
I3
tp1794
a(I4
I8
I2
I24
tp1795
a(I3
I10
I2
I15
tp1796
a(I4
I13
I3
I14
tp1797
a(I4
I18
I3
I0
tp1798
a(I3
I7
I2
I9
tp1799
a(I1
I12
I2
I10
tp1800
a(I2
I18
I1
I19
tp1801
a(I4
I18
I3
I17
tp1802
a(I1
I21
I2
I17
tp1803
a(I2
I21
I1
I3
tp1804
a(I1
I4
I2
I7
tp1805
a(I4
I16
I3
I14
tp1806
a(I1
I14
I2
I4
tp1807
a(I4
I12
I2
I18
tp1808
a(I2
I6
I1
I11
tp1809
a(I2
I2
I3
I6
tp1810
a(I2
I17
I3
I1
tp1811
a(I3
I2
I4
I0
tp1812
a(I3
I20
I2
I9
tp1813
a(I2
I9
I1
I11
tp1814
a(I4
I21
I2
I1
tp1815
a(I4
I16
I3
I22
tp1816
a(I2
I15
I1
I18
tp1817
a(I1
I6
I2
I1
tp1818
a(I4
I11
I3
I12
tp1819
a(I4
I3
I3
I17
tp1820
a(I4
I1
I3
I15
tp1821
a(I4
I18
I2
I12
tp1822
a(I4
I5
I3
I6
tp1823
a(I2
I23
I1
I2
tp1824
a(I4
I7
I2
I5
tp1825
a(I4
I2
I3
I14
tp1826
a(I2
I9
I1
I19
tp1827
a(I2
I21
I1
I16
tp1828
a(I4
I1
I2
I4
tp1829
a(I3
I22
I2
I18
tp1830
a(I4
I11
I3
I20
tp1831
a(I4
I23
I3
I9
tp1832
a(I1
I17
I2
I15
tp1833
a(I4
I16
I2
I2
tp1834
a(I3
I4
I2
I19
tp1835
a(I4
I11
I2
I15
tp1836
a(I3
I11
I2
I18
tp1837
a(I4
I12
I3
I21
tp1838
a(I4
I9
I3
I10
tp1839
a(I3
I14
I2
I6
tp1840
a(I4
I21
I3
I7
tp1841
a(I4
I19
I3
I15
tp1842
a(I4
I8
I3
I5
tp1843
a(I4
I11
I2
I3
tp1844
a(I4
I20
I3
I0
tp1845
a(I4
I12
I3
I17
tp1846
a(I4
I10
I2
I13
tp1847
a(I4
I2
I2
I18
tp1848
a(I2
I24
I1
I6
tp1849
a(I1
I5
I2
I18
tp1850
a(I3
I12
I2
I0
tp1851
a(I2
I17
I1
I0
tp1852
a(I3
I16
I2
I3
tp1853
a(I4
I2
I1
I11
tp1854
a(I4
I16
I1
I2
tp1855
a(I4
I23
I2
I6
tp1856
a(I3
I9
I2
I4
tp1857
a(I4
I4
I2
I8
tp1858
a(I4
I15
I3
I10
tp1859
a(I2
I16
I1
I3
tp1860
a(I4
I5
I3
I9
tp1861
a(I4
I22
I2
I10
tp1862
a(I4
I7
I1
I0
tp1863
a(I3
I12
I2
I24
tp1864
a(I4
I19
I2
I20
tp1865
a(I3
I24
I2
I8
tp1866
a(I2
I17
I1
I24
tp1867
a(I2
I23
I3
I1
tp1868
a(I1
I16
I2
I3
tp1869
a(I4
I17
I2
I0
tp1870
a(I4
I23
I2
I2
tp1871
a(I4
I4
I2
I12
tp1872
a(I3
I21
I2
I4
tp1873
a(I4
I13
I3
I20
tp1874
a(I2
I22
I3
I2
tp1875
a(I4
I5
I3
I17
tp1876
a(I4
I20
I2
I4
tp1877
a(I1
I7
I2
I12
tp1878
a(I2
I19
I1
I3
tp1879
a(I2
I1
I3
I10
tp1880
a(I1
I1
I2
I10
tp1881
a(I2
I15
I1
I0
tp1882
a(I4
I4
I3
I18
tp1883
a(I1
I18
I2
I5
tp1884
a(I3
I11
I4
I0
tp1885
a(I3
I22
I2
I6
tp1886
a(I2
I18
I1
I0
tp1887
a(I4
I6
I2
I0
tp1888
a(I4
I13
I3
I12
tp1889
a(I1
I21
I2
I0
tp1890
a(I2
I14
I1
I7
tp1891
a(I4
I20
I1
I2
tp1892
a(I2
I21
I1
I18
tp1893
a(I4
I3
I2
I20
tp1894
a(I1
I1
I2
I14
tp1895
a(I2
I7
I1
I11
tp1896
a(I2
I15
I1
I24
tp1897
a(I1
I4
I2
I20
tp1898
a(I3
I7
I2
I16
tp1899
a(I3
I5
I2
I14
tp1900
a(I3
I22
I2
I10
tp1901
a(I4
I7
I1
I2
tp1902
a(I2
I2
I3
I23
tp1903
a(I1
I1
I2
I8
tp1904
a(I2
I8
I1
I16
tp1905
a(I3
I22
I2
I4
tp1906
a(I4
I11
I2
I17
tp1907
a(I4
I21
I2
I18
tp1908
a(I4
I16
I3
I7
tp1909
a(I3
I19
I2
I8
tp1910
a(I4
I3
I3
I0
tp1911
a(I4
I18
I2
I19
tp1912
a(I2
I6
I1
I16
tp1913
a(I2
I2
I3
I15
tp1914
a(I1
I1
I2
I16
tp1915
a(I2
I9
I1
I2
tp1916
a(I4
I3
I3
I6
tp1917
a(I1
I6
I2
I10
tp1918
a(I3
I17
I2
I6
tp1919
a(I4
I5
I1
I1
tp1920
a(I4
I1
I3
I6
tp1921
a(I2
I12
I3
I2
tp1922
a(I2
I8
I1
I13
tp1923
a(I4
I10
I3
I8
tp1924
a(I2
I5
I3
I0
tp1925
a(I4
I7
I2
I2
tp1926
a(I1
I20
I2
I2
tp1927
a(I4
I22
I3
I15
tp1928
a(I1
I8
I2
I1
tp1929
a(I4
I11
I3
I19
tp1930
a(I4
I4
I2
I16
tp1931
a(I2
I22
I1
I14
tp1932
a(I2
I18
I3
I1
tp1933
a(I4
I23
I3
I16
tp1934
a(I3
I6
I2
I18
tp1935
a(I4
I9
I2
I1
tp1936
a(I4
I15
I2
I7
tp1937
a(I4
I10
I3
I16
tp1938
a(I4
I5
I2
I4
tp1939
a(I3
I7
I4
I0
tp1940
a(I3
I11
I2
I9
tp1941
a(I4
I20
I3
I17
tp1942
a(I4
I3
I3
I14
tp1943
a(I4
I2
I2
I1
tp1944
a(I2
I24
I1
I23
tp1945
a(I4
I24
I2
I0
tp1946
a(I1
I19
I2
I0
tp1947
a(I4
I9
I2
I5
tp1948
a(I3
I16
I2
I20
tp1949
a(I2
I3
I1
I4
tp1950
a(I4
I8
I3
I14
tp1951
a(I4
I16
I3
I17
tp1952
a(I4
I20
I3
I9
tp1953
a(I4
I3
I3
I10
tp1954
a(I1
I2
I2
I12
tp1955
a(I4
I10
I2
I4
tp1956
a(I4
I7
I3
I6
tp1957
a(I1
I5
I2
I9
tp1958
a(I3
I12
I2
I9
tp1959
a(I3
I16
I2
I12
tp1960
a(I4
I2
I1
I12
tp1961
a(I4
I13
I2
I17
tp1962
a(I2
I23
I1
I19
tp1963
a(I4
I15
I3
I1
tp1964
a(I2
I21
I4
I0
tp1965
a(I4
I5
I3
I0
tp1966
a(I4
I22
I2
I17
tp1967
a(I3
I2
I2
I0
tp1968
a(I4
I14
I3
I6
tp1969
a(I2
I5
I1
I3
tp1970
a(I4
I12
I2
I7
tp1971
a(I4
I11
I2
I21
tp1972
a(I4
I1
I1
I2
tp1973
a(I4
I8
I2
I18
tp1974
a(I2
I14
I1
I20
tp1975
a(I3
I10
I2
I5
tp1976
a(I2
I1
I3
I1
tp1977
a(I4
I3
I2
I5
tp1978
a(I3
I18
I4
I0
tp1979
a(I4
I0
I1
I1
tp1980
a(I4
I12
I3
I8
tp1981
a(I2
I11
I3
I0
tp1982
a(I1
I12
I2
I0
tp1983
a(I4
I6
I2
I7
tp1984
a(I1
I15
I2
I3
tp1985
a(I3
I22
I2
I21
tp1986
a(I2
I7
I1
I2
tp1987
a(I4
I23
I2
I5
tp1988
a(I4
I18
I3
I14
tp1989
a(I3
I15
I2
I10
tp1990
a(I1
I4
I2
I13
tp1991
a(I3
I5
I2
I9
tp1992
a(I4
I14
I2
I2
tp1993
a(I2
I20
I1
I14
tp1994
a(I2
I2
I3
I24
tp1995
a(I1
I1
I2
I15
tp1996
a(I3
I8
I2
I19
tp1997
a(I1
I11
I2
I2
tp1998
a(I2
I21
I1
I13
tp1999
a(I3
I15
I2
I18
tp2000
a(I3
I20
I2
I16
tp2001
a(I3
I19
I2
I15
tp2002
a(I4
I15
I1
I0
tp2003
a(I2
I20
I1
I22
tp2004
a(I4
I19
I2
I24
tp2005
a(I3
I12
I4
I0
tp2006
a(I1
I1
I2
I23
tp2007
a(I2
I23
I1
I8
tp2008
a(I4
I14
I1
I3
tp2009
a(I4
I24
I3
I5
tp2010
a(I3
I13
I2
I20
tp2011
a(I4
I11
I3
I2
tp2012
a(I2
I8
I1
I6
tp2013
a(I3
I6
I2
I3
tp2014
a(I4
I16
I2
I15
tp2015
a(I4
I15
I2
I20
tp2016
a(I4
I10
I3
I1
tp2017
a(I2
I1
I1
I0
tp2018
a(I4
I22
I3
I4
tp2019
a(I3
I11
I2
I24
tp2020
a(I3
I3
I2
I5
tp2021
a(I4
I13
I1
I3
tp2022
a(I4
I9
I3
I4
tp2023
a(I3
I14
I2
I12
tp2024
a(I1
I19
I2
I19
tp2025
a(I3
I4
I2
I13
tp2026
a(I4
I12
I1
I0
tp2027
a(I2
I11
I1
I8
tp2028
a(I2
I7
I3
I1
tp2029
a(I4
I5
I2
I13
tp2030
a(I3
I11
I2
I0
tp2031
a(I1
I22
I2
I5
tp2032
a(I1
I10
I2
I0
tp2033
a(I4
I7
I3
I21
tp2034
a(I4
I3
I1
I18
tp2035
a(I2
I24
I1
I8
tp2036
a(I4
I11
I2
I23
tp2037
a(I2
I10
I1
I7
tp2038
a(I2
I6
I3
I2
tp2039
a(I1
I5
I2
I24
tp2040
a(I4
I13
I2
I2
tp2041
a(I4
I8
I3
I23
tp2042
a(I1
I24
I2
I4
tp2043
a(I3
I23
I2
I24
tp2044
a(I2
I8
I1
I19
tp2045
a(I4
I7
I3
I13
tp2046
a(I2
I2
I1
I0
tp2047
a(I4
I22
I2
I0
tp2048
a(I1
I5
I2
I0
tp2049
a(I3
I12
I2
I18
tp2050
a(I4
I16
I2
I3
tp2051
a(I3
I24
I2
I18
tp2052
a(I2
I17
I1
I18
tp2053
a(I4
I14
I3
I23
tp2054
a(I4
I2
I1
I5
tp2055
a(I3
I21
I2
I14
tp2056
a(I4
I11
I1
I1
tp2057
a(I3
I4
I2
I18
tp2058
a(I4
I8
I2
I5
tp2059
a(I4
I23
I1
I2
tp2060
a(I2
I12
I1
I8
tp2061
a(I2
I19
I1
I9
tp2062
a(I2
I1
I3
I16
tp2063
a(I4
I14
I3
I15
tp2064
a(I4
I10
I1
I2
tp2065
a(I4
I4
I3
I12
tp2066
a(I4
I17
I2
I18
tp2067
a(I1
I12
I2
I17
tp2068
a(I3
I21
I2
I22
tp2069
a(I3
I4
I2
I22
tp2070
a(I4
I19
I3
I0
tp2071
a(I2
I14
I1
I13
tp2072
a(I2
I14
I3
I2
tp2073
a(I4
I12
I3
I1
tp2074
a(I3
I7
I2
I14
tp2075
a(I3
I5
I2
I24
tp2076
a(I4
I14
I2
I17
tp2077
a(I3
I4
I2
I10
tp2078
a(I4
I21
I1
I1
tp2079
a(I3
I8
I2
I4
tp2080
a(I2
I16
I4
I0
tp2081
a(I4
I16
I2
I23
tp2082
a(I4
I8
I1
I3
tp2083
a(I3
I8
I2
I10
tp2084
a(I1
I4
I2
I2
tp2085
a(I4
I16
I3
I9
tp2086
a(I3
I5
I2
I0
tp2087
a(I2
I24
I3
I0
tp2088
a(I2
I20
I1
I7
tp2089
a(I2
I6
I1
I14
tp2090
a(I4
I4
I2
I24
tp2091
a(I1
I1
I2
I6
tp2092
a(I1
I11
I2
I5
tp2093
a(I2
I9
I1
I12
tp2094
a(I4
I24
I3
I22
tp2095
a(I4
I21
I2
I4
tp2096
a(I3
I23
I4
I0
tp2097
a(I3
I13
I2
I7
tp2098
a(I3
I19
I2
I22
tp2099
a(I4
I3
I3
I22
tp2100
a(I4
I18
I2
I1
tp2101
a(I1
I3
I2
I0
tp2102
a(I4
I7
I2
I8
tp2103
a(I2
I9
I1
I20
tp2104
a(I4
I24
I3
I14
tp2105
a(I3
I3
I2
I20
tp2106
a(I3
I4
I2
I6
tp2107
a(I4
I19
I1
I3
tp2108
a(I1
I17
I2
I12
tp2109
a(I3
I18
I2
I24
tp2110
a(I3
I0
I4
I0
tp2111
a(I4
I10
I3
I6
tp2112
a(I4
I9
I3
I15
tp2113
a(I2
I10
I1
I20
tp2114
a(I3
I14
I2
I5
tp2115
a(I2
I5
I4
I0
tp2116
a(I4
I21
I3
I0
tp2117
a(I3
I18
I2
I0
tp2118
atp2119
Rp2120
.