(dp0
(I1
I17
tp1
F179.3325646319131
s(I2
I22
tp2
F166.84136232301128
s(I1
I6
tp3
F165.6149200338055
s(I3
I7
tp4
F162.23856686926624
s(I2
I5
tp5
F146.8342528977366
s(I1
I11
tp6
F173.51930147153027
s(I4
I0
tp7
F1445.8225919886866
s(I3
I24
tp8
F165.77150733486167
s(I4
I19
tp9
F433.899894201346
s(I1
I1
tp10
F460.36750015242876
s(I4
I10
tp11
F427.7657782786803
s(I3
I2
tp12
F199.45357192219126
s(I2
I6
tp13
F152.36931074144928
s(I4
I5
tp14
F428.0170640087409
s(I3
I23
tp15
F173.36571935513388
s(I4
I16
tp16
F418.3519355321869
s(I2
I17
tp17
F157.76453977127983
s(I3
I12
tp18
F161.03564587474244
s(I1
I12
tp19
F173.16931818089702
s(I4
I15
tp20
F445.8964813933365
s(I3
I1
tp21
F464.5855343561509
s(I2
I11
tp22
F169.3830182844555
s(I3
I18
tp23
F160.9607269439081
s(I4
I21
tp24
F436.29525785689407
s(I1
I21
tp25
F166.01571925648224
s(I2
I18
tp26
F172.13534919374567
s(I3
I11
tp27
F163.56208119748618
s(I2
I1
tp28
F502.3505701930051
s(I1
I15
tp29
F173.92853938643262
s(I4
I12
tp30
F427.9436323994495
s(I2
I12
tp31
F156.58427142740635
s(I3
I17
tp32
F173.50951975103405
s(I1
I16
tp33
F179.95572556046375
s(I2
I23
tp34
F165.0374395094192
s(I1
I5
tp35
F173.25433724500328
s(I3
I6
tp36
F167.54016817657163
s(I2
I2
tp37
F233.15723790831166
s(I1
I10
tp38
F169.16538797927228
s(I4
I1
tp39
F551.4937905260151
s(I1
I19
tp40
F163.7272275202585
s(I2
I24
tp41
F167.3448664475897
s(I1
I0
tp42
F710.1624580623377
s(I4
I11
tp43
F429.3130754089747
s(I3
I5
tp44
F159.11855787717587
s(I2
I7
tp45
F166.5097461265888
s(I4
I6
tp46
F435.94949178920723
s(I3
I22
tp47
F160.41387253192312
s(I4
I17
tp48
F432.16890469147216
s(I3
I15
tp49
F166.58797363060984
s(I1
I3
tp50
F203.7020905206722
s(I4
I8
tp51
F439.6052921313722
s(I3
I0
tp52
F919.9160779486955
s(I2
I8
tp53
F155.60484291232208
s(I3
I21
tp54
F174.78362855337105
s(I4
I22
tp55
F429.4158405561662
s(I1
I20
tp56
F164.87967481775755
s(I2
I19
tp57
F155.2969596966056
s(I3
I10
tp58
F173.57085973093638
s(I1
I14
tp59
F160.97281525962455
s(I4
I13
tp60
F409.6840440191939
s(I2
I13
tp61
F167.29737793939418
s(I4
I24
tp62
F417.115120006544
s(I3
I16
tp63
F158.3305355471171
s(I1
I23
tp64
F178.9636379397621
s(I2
I20
tp65
F169.60311960708765
s(I1
I4
tp66
F190.3443113229056
s(I3
I9
tp67
F159.84688727801498
s(I2
I3
tp68
F173.7224951570365
s(I1
I9
tp69
F180.18008533273553
s(I4
I2
tp70
F478.3638198192618
s(I2
I14
tp71
F178.9044610850916
s(I1
I18
tp72
F162.38222052047942
s(I1
I7
tp73
F163.7951188272151
s(I3
I4
tp74
F173.37581294588395
s(I2
I4
tp75
F170.1347347988811
s(I4
I7
tp76
F428.52833120764984
s(I4
I18
tp77
F432.1872538795639
s(I3
I14
tp78
F171.17999488580017
s(I1
I2
tp79
F269.23672995980587
s(I4
I9
tp80
F414.5419202161599
s(I3
I3
tp81
F169.96648239879397
s(I2
I9
tp82
F161.60628264682114
s(I4
I4
tp83
F428.38692493559074
s(I3
I20
tp84
F171.1356059503992
s(I4
I23
tp85
F420.5768973878579
s(I2
I16
tp86
F167.44599503433935
s(I1
I24
tp87
F183.04283529459008
s(I3
I13
tp88
F169.80293502776405
s(I1
I13
tp89
F175.51626023009123
s(I4
I14
tp90
F427.1470533830386
s(I2
I10
tp91
F155.01634740471295
s(I3
I19
tp92
F163.36514938403437
s(I4
I20
tp93
F411.70159653564616
s(I1
I22
tp94
F175.4197114973368
s(I2
I21
tp95
F164.23318043132213
s(I3
I8
tp96
F168.98895750442745
s(I2
I0
tp97
F865.4137544502373
s(I1
I8
tp98
F161.81265510417103
s(I4
I3
tp99
F430.4601250222833
s(I2
I15
tp100
F158.6400099531829
s.