(dp0
I1
(lp1
(I0
I1
tp2
a(I1
I2
tp3
a(I2
I0
tp4
a(I2
I3
tp5
a(I3
I0
tp6
a(I3
I4
tp7
a(I4
I0
tp8
a(I4
I5
tp9
a(I5
I0
tp10
a(I5
I6
tp11
a(I6
I0
tp12
a(I6
I7
tp13
a(I6
I8
tp14
a(I6
I19
tp15
a(I6
I20
tp16
a(I7
I0
tp17
a(I7
I7
tp18
a(I7
I8
tp19
a(I7
I19
tp20
a(I7
I20
tp21
a(I8
I0
tp22
a(I8
I4
tp23
a(I8
I9
tp24
a(I8
I15
tp25
a(I8
I16
tp26
a(I8
I22
tp27
a(I8
I23
tp28
a(I9
I0
tp29
a(I9
I10
tp30
a(I10
I0
tp31
a(I10
I4
tp32
a(I10
I9
tp33
a(I10
I11
tp34
a(I10
I12
tp35
a(I10
I13
tp36
a(I10
I15
tp37
a(I10
I16
tp38
a(I10
I17
tp39
a(I10
I22
tp40
a(I10
I23
tp41
a(I10
I24
tp42
a(I11
I0
tp43
a(I11
I4
tp44
a(I11
I11
tp45
a(I11
I12
tp46
a(I11
I13
tp47
a(I11
I17
tp48
a(I11
I24
tp49
a(I12
I0
tp50
a(I12
I4
tp51
a(I12
I11
tp52
a(I12
I12
tp53
a(I12
I13
tp54
a(I12
I17
tp55
a(I12
I24
tp56
a(I13
I0
tp57
a(I13
I14
tp58
a(I14
I0
tp59
a(I14
I4
tp60
a(I14
I9
tp61
a(I14
I15
tp62
a(I14
I16
tp63
a(I14
I22
tp64
a(I14
I23
tp65
a(I15
I0
tp66
a(I15
I4
tp67
a(I15
I15
tp68
a(I15
I16
tp69
a(I15
I23
tp70
a(I16
I0
tp71
a(I16
I4
tp72
a(I16
I17
tp73
a(I17
I0
tp74
a(I17
I4
tp75
a(I17
I9
tp76
a(I17
I11
tp77
a(I17
I12
tp78
a(I17
I13
tp79
a(I17
I15
tp80
a(I17
I16
tp81
a(I17
I17
tp82
a(I17
I18
tp83
a(I17
I22
tp84
a(I17
I23
tp85
a(I17
I24
tp86
a(I18
I0
tp87
a(I18
I7
tp88
a(I18
I8
tp89
a(I18
I19
tp90
a(I18
I20
tp91
a(I19
I0
tp92
a(I19
I7
tp93
a(I19
I8
tp94
a(I19
I19
tp95
a(I19
I20
tp96
a(I20
I0
tp97
a(I20
I2
tp98
a(I20
I4
tp99
a(I20
I16
tp100
a(I20
I21
tp101
a(I20
I23
tp102
a(I21
I0
tp103
a(I21
I4
tp104
a(I21
I9
tp105
a(I21
I15
tp106
a(I21
I16
tp107
a(I21
I22
tp108
a(I21
I23
tp109
a(I22
I0
tp110
a(I22
I4
tp111
a(I22
I15
tp112
a(I22
I16
tp113
a(I22
I23
tp114
a(I23
I0
tp115
a(I23
I4
tp116
a(I23
I11
tp117
a(I23
I12
tp118
a(I23
I13
tp119
a(I23
I17
tp120
a(I23
I24
tp121
a(I24
I0
tp122
a(I24
I6
tp123
a(I24
I7
tp124
a(I24
I8
tp125
a(I24
I10
tp126
a(I24
I19
tp127
a(I24
I20
tp128
asI2
(lp129
(I0
I1
tp130
a(I1
I0
tp131
a(I1
I2
tp132
a(I2
I0
tp133
a(I2
I3
tp134
a(I3
I0
tp135
a(I3
I2
tp136
a(I3
I4
tp137
a(I4
I0
tp138
a(I4
I2
tp139
a(I4
I5
tp140
a(I5
I0
tp141
a(I5
I6
tp142
a(I6
I0
tp143
a(I6
I7
tp144
a(I7
I0
tp145
a(I7
I8
tp146
a(I7
I21
tp147
a(I8
I0
tp148
a(I8
I7
tp149
a(I8
I9
tp150
a(I8
I13
tp151
a(I8
I16
tp152
a(I8
I18
tp153
a(I8
I22
tp154
a(I8
I24
tp155
a(I9
I0
tp156
a(I9
I10
tp157
a(I10
I0
tp158
a(I10
I11
tp159
a(I11
I0
tp160
a(I11
I10
tp161
a(I11
I12
tp162
a(I11
I14
tp163
a(I11
I17
tp164
a(I12
I0
tp165
a(I12
I7
tp166
a(I12
I9
tp167
a(I12
I13
tp168
a(I12
I16
tp169
a(I12
I18
tp170
a(I12
I22
tp171
a(I12
I24
tp172
a(I13
I0
tp173
a(I13
I10
tp174
a(I13
I14
tp175
a(I13
I17
tp176
a(I14
I0
tp177
a(I14
I8
tp178
a(I14
I15
tp179
a(I14
I21
tp180
a(I14
I23
tp181
a(I15
I0
tp182
a(I15
I7
tp183
a(I15
I9
tp184
a(I15
I13
tp185
a(I15
I16
tp186
a(I15
I18
tp187
a(I15
I22
tp188
a(I15
I24
tp189
a(I16
I0
tp190
a(I16
I10
tp191
a(I16
I14
tp192
a(I16
I17
tp193
a(I17
I0
tp194
a(I17
I7
tp195
a(I17
I9
tp196
a(I17
I13
tp197
a(I17
I16
tp198
a(I17
I18
tp199
a(I17
I22
tp200
a(I17
I24
tp201
a(I18
I0
tp202
a(I18
I8
tp203
a(I18
I19
tp204
a(I18
I21
tp205
a(I19
I0
tp206
a(I19
I20
tp207
a(I20
I0
tp208
a(I20
I8
tp209
a(I20
I15
tp210
a(I20
I21
tp211
a(I21
I0
tp212
a(I21
I7
tp213
a(I21
I9
tp214
a(I21
I22
tp215
a(I21
I24
tp216
a(I22
I0
tp217
a(I22
I8
tp218
a(I22
I21
tp219
a(I22
I23
tp220
a(I23
I0
tp221
a(I23
I7
tp222
a(I23
I9
tp223
a(I23
I13
tp224
a(I23
I16
tp225
a(I23
I18
tp226
a(I23
I22
tp227
a(I23
I24
tp228
a(I24
I0
tp229
a(I24
I10
tp230
asI3
(lp231
(I0
I1
tp232
a(I1
I0
tp233
a(I1
I1
tp234
a(I1
I2
tp235
a(I2
I0
tp236
a(I2
I3
tp237
a(I3
I0
tp238
a(I3
I4
tp239
a(I3
I15
tp240
a(I4
I0
tp241
a(I4
I3
tp242
a(I4
I5
tp243
a(I5
I0
tp244
a(I5
I6
tp245
a(I5
I8
tp246
a(I6
I0
tp247
a(I6
I3
tp248
a(I6
I7
tp249
a(I6
I12
tp250
a(I6
I14
tp251
a(I6
I18
tp252
a(I6
I24
tp253
a(I7
I0
tp254
a(I7
I6
tp255
a(I7
I8
tp256
a(I8
I0
tp257
a(I8
I9
tp258
a(I8
I10
tp259
a(I8
I13
tp260
a(I8
I17
tp261
a(I8
I20
tp262
a(I8
I22
tp263
a(I8
I23
tp264
a(I9
I0
tp265
a(I9
I10
tp266
a(I9
I13
tp267
a(I9
I17
tp268
a(I9
I20
tp269
a(I9
I23
tp270
a(I10
I0
tp271
a(I10
I1
tp272
a(I10
I2
tp273
a(I10
I11
tp274
a(I11
I0
tp275
a(I11
I3
tp276
a(I11
I12
tp277
a(I11
I14
tp278
a(I11
I18
tp279
a(I11
I24
tp280
a(I12
I0
tp281
a(I12
I10
tp282
a(I12
I13
tp283
a(I12
I17
tp284
a(I12
I20
tp285
a(I12
I23
tp286
a(I13
I0
tp287
a(I13
I3
tp288
a(I13
I7
tp289
a(I13
I12
tp290
a(I13
I14
tp291
a(I13
I18
tp292
a(I13
I24
tp293
a(I14
I0
tp294
a(I14
I4
tp295
a(I14
I15
tp296
a(I15
I0
tp297
a(I15
I3
tp298
a(I15
I16
tp299
a(I16
I0
tp300
a(I16
I10
tp301
a(I16
I13
tp302
a(I16
I17
tp303
a(I16
I20
tp304
a(I16
I23
tp305
a(I17
I0
tp306
a(I17
I7
tp307
a(I17
I12
tp308
a(I17
I14
tp309
a(I17
I18
tp310
a(I17
I24
tp311
a(I18
I0
tp312
a(I18
I19
tp313
a(I19
I0
tp314
a(I19
I10
tp315
a(I19
I17
tp316
a(I19
I20
tp317
a(I19
I23
tp318
a(I20
I0
tp319
a(I20
I21
tp320
a(I21
I0
tp321
a(I21
I9
tp322
a(I21
I10
tp323
a(I21
I13
tp324
a(I21
I17
tp325
a(I21
I20
tp326
a(I21
I22
tp327
a(I21
I23
tp328
a(I22
I0
tp329
a(I22
I10
tp330
a(I22
I17
tp331
a(I22
I20
tp332
a(I22
I23
tp333
a(I23
I0
tp334
a(I23
I7
tp335
a(I23
I12
tp336
a(I23
I14
tp337
a(I23
I18
tp338
a(I23
I24
tp339
a(I24
I0
tp340
a(I24
I10
tp341
a(I24
I17
tp342
a(I24
I20
tp343
a(I24
I23
tp344
asI4
(lp345
(I0
I0
tp346
a(I0
I1
tp347
a(I1
I0
tp348
a(I1
I2
tp349
a(I2
I0
tp350
a(I2
I3
tp351
a(I3
I0
tp352
a(I3
I4
tp353
a(I4
I0
tp354
a(I4
I5
tp355
a(I4
I18
tp356
a(I5
I0
tp357
a(I5
I6
tp358
a(I6
I0
tp359
a(I6
I7
tp360
a(I7
I0
tp361
a(I7
I8
tp362
a(I8
I0
tp363
a(I8
I7
tp364
a(I8
I9
tp365
a(I8
I11
tp366
a(I8
I20
tp367
a(I8
I22
tp368
a(I9
I0
tp369
a(I9
I8
tp370
a(I9
I10
tp371
a(I9
I12
tp372
a(I9
I14
tp373
a(I9
I17
tp374
a(I9
I19
tp375
a(I9
I21
tp376
a(I9
I23
tp377
a(I10
I0
tp378
a(I10
I7
tp379
a(I10
I11
tp380
a(I10
I18
tp381
a(I11
I0
tp382
a(I11
I12
tp383
a(I12
I0
tp384
a(I12
I7
tp385
a(I12
I9
tp386
a(I12
I11
tp387
a(I12
I13
tp388
a(I12
I18
tp389
a(I12
I20
tp390
a(I12
I22
tp391
a(I13
I0
tp392
a(I13
I12
tp393
a(I13
I14
tp394
a(I14
I0
tp395
a(I14
I15
tp396
a(I15
I0
tp397
a(I15
I5
tp398
a(I15
I7
tp399
a(I15
I16
tp400
a(I15
I18
tp401
a(I16
I0
tp402
a(I16
I6
tp403
a(I16
I10
tp404
a(I16
I12
tp405
a(I16
I17
tp406
a(I16
I19
tp407
a(I16
I21
tp408
a(I16
I23
tp409
a(I17
I0
tp410
a(I17
I5
tp411
a(I17
I18
tp412
a(I18
I0
tp413
a(I18
I8
tp414
a(I18
I10
tp415
a(I18
I12
tp416
a(I18
I14
tp417
a(I18
I17
tp418
a(I18
I19
tp419
a(I18
I21
tp420
a(I18
I23
tp421
a(I19
I0
tp422
a(I19
I7
tp423
a(I19
I9
tp424
a(I19
I11
tp425
a(I19
I13
tp426
a(I19
I20
tp427
a(I19
I22
tp428
a(I20
I0
tp429
a(I20
I6
tp430
a(I20
I10
tp431
a(I20
I12
tp432
a(I20
I15
tp433
a(I20
I17
tp434
a(I20
I21
tp435
a(I20
I23
tp436
a(I21
I0
tp437
a(I21
I18
tp438
a(I21
I22
tp439
a(I22
I0
tp440
a(I22
I8
tp441
a(I22
I10
tp442
a(I22
I12
tp443
a(I22
I14
tp444
a(I22
I17
tp445
a(I22
I19
tp446
a(I22
I23
tp447
a(I23
I0
tp448
a(I23
I5
tp449
a(I23
I7
tp450
a(I23
I16
tp451
a(I23
I18
tp452
a(I23
I24
tp453
a(I24
I0
tp454
a(I24
I6
tp455
a(I24
I10
tp456
a(I24
I12
tp457
a(I24
I17
tp458
a(I24
I19
tp459
a(I24
I21
tp460
a(I24
I23
tp461
as.