((lp0
(I6
I6
I6
I6
tp1
a(I6
I6
I13
I6
tp2
a(I6
I7
I7
I7
tp3
a(I6
I7
I22
I9
tp4
a(I6
I7
I22
I22
tp5
a(I7
I6
I6
I6
tp6
a(I7
I6
I13
I6
tp7
a(I7
I7
I7
I7
tp8
a(I7
I7
I22
I9
tp9
a(I7
I7
I22
I22
tp10
a(I8
I8
I6
I17
tp11
a(I8
I8
I6
I23
tp12
a(I8
I8
I8
I8
tp13
a(I8
I8
I8
I21
tp14
a(I8
I8
I13
I17
tp15
a(I8
I8
I13
I23
tp16
a(I8
I8
I15
I15
tp17
a(I8
I8
I15
I17
tp18
a(I8
I8
I15
I23
tp19
a(I8
I8
I16
I12
tp20
a(I8
I8
I16
I19
tp21
a(I8
I8
I17
I17
tp22
a(I8
I8
I17
I23
tp23
a(I8
I8
I21
I8
tp24
a(I8
I8
I21
I21
tp25
a(I8
I8
I23
I17
tp26
a(I8
I8
I23
I23
tp27
a(I8
I10
I10
I10
tp28
a(I8
I21
I6
I17
tp29
a(I8
I21
I6
I23
tp30
a(I8
I21
I8
I8
tp31
a(I8
I21
I8
I21
tp32
a(I8
I21
I13
I17
tp33
a(I8
I21
I13
I23
tp34
a(I8
I21
I15
I15
tp35
a(I8
I21
I15
I17
tp36
a(I8
I21
I15
I23
tp37
a(I8
I21
I17
I17
tp38
a(I8
I21
I17
I23
tp39
a(I8
I21
I21
I8
tp40
a(I8
I21
I21
I21
tp41
a(I8
I21
I23
I17
tp42
a(I8
I21
I23
I23
tp43
a(I9
I9
I8
I9
tp44
a(I9
I9
I8
I22
tp45
a(I9
I9
I9
I9
tp46
a(I9
I9
I9
I22
tp47
a(I9
I9
I16
I9
tp48
a(I9
I9
I16
I16
tp49
a(I9
I9
I16
I18
tp50
a(I9
I9
I16
I22
tp51
a(I9
I9
I16
I24
tp52
a(I9
I24
I24
I9
tp53
a(I9
I24
I24
I16
tp54
a(I9
I24
I24
I18
tp55
a(I9
I24
I24
I22
tp56
a(I9
I24
I24
I24
tp57
a(I10
I8
I6
I17
tp58
a(I10
I8
I6
I23
tp59
a(I10
I8
I8
I8
tp60
a(I10
I8
I8
I21
tp61
a(I10
I8
I13
I17
tp62
a(I10
I8
I13
I23
tp63
a(I10
I8
I15
I15
tp64
a(I10
I8
I15
I17
tp65
a(I10
I8
I15
I23
tp66
a(I10
I8
I16
I12
tp67
a(I10
I8
I16
I19
tp68
a(I10
I8
I17
I17
tp69
a(I10
I8
I17
I23
tp70
a(I10
I8
I21
I8
tp71
a(I10
I8
I21
I21
tp72
a(I10
I8
I23
I17
tp73
a(I10
I8
I23
I23
tp74
a(I10
I10
I10
I10
tp75
a(I10
I14
I14
I14
tp76
a(I10
I21
I6
I17
tp77
a(I10
I21
I6
I23
tp78
a(I10
I21
I8
I8
tp79
a(I10
I21
I8
I21
tp80
a(I10
I21
I13
I17
tp81
a(I10
I21
I13
I23
tp82
a(I10
I21
I15
I15
tp83
a(I10
I21
I15
I17
tp84
a(I10
I21
I15
I23
tp85
a(I10
I21
I17
I17
tp86
a(I10
I21
I17
I23
tp87
a(I10
I21
I21
I8
tp88
a(I10
I21
I21
I21
tp89
a(I10
I21
I23
I17
tp90
a(I10
I21
I23
I23
tp91
a(I11
I11
I11
I11
tp92
a(I11
I11
I24
I9
tp93
a(I11
I11
I24
I16
tp94
a(I11
I11
I24
I18
tp95
a(I11
I11
I24
I22
tp96
a(I11
I11
I24
I24
tp97
a(I11
I12
I8
I8
tp98
a(I11
I12
I8
I21
tp99
a(I11
I12
I12
I12
tp100
a(I11
I12
I12
I19
tp101
a(I11
I12
I15
I15
tp102
a(I11
I12
I15
I17
tp103
a(I11
I12
I15
I23
tp104
a(I11
I12
I17
I17
tp105
a(I11
I12
I17
I23
tp106
a(I11
I12
I21
I8
tp107
a(I11
I12
I21
I21
tp108
a(I11
I12
I23
I17
tp109
a(I11
I12
I23
I23
tp110
a(I11
I13
I6
I13
tp111
a(I11
I13
I8
I9
tp112
a(I11
I13
I8
I22
tp113
a(I11
I13
I9
I9
tp114
a(I11
I13
I9
I22
tp115
a(I11
I13
I13
I13
tp116
a(I11
I13
I16
I9
tp117
a(I11
I13
I16
I16
tp118
a(I11
I13
I16
I18
tp119
a(I11
I13
I16
I22
tp120
a(I11
I13
I16
I24
tp121
a(I11
I13
I21
I9
tp122
a(I11
I13
I21
I22
tp123
a(I11
I15
I6
I17
tp124
a(I11
I15
I6
I23
tp125
a(I11
I15
I8
I8
tp126
a(I11
I15
I8
I21
tp127
a(I11
I15
I13
I17
tp128
a(I11
I15
I13
I23
tp129
a(I11
I15
I15
I15
tp130
a(I11
I15
I15
I17
tp131
a(I11
I15
I15
I23
tp132
a(I11
I15
I16
I12
tp133
a(I11
I15
I16
I19
tp134
a(I11
I15
I17
I17
tp135
a(I11
I15
I17
I23
tp136
a(I11
I15
I21
I8
tp137
a(I11
I15
I21
I21
tp138
a(I11
I15
I23
I17
tp139
a(I11
I15
I23
I23
tp140
a(I11
I16
I6
I13
tp141
a(I11
I16
I8
I9
tp142
a(I11
I16
I8
I22
tp143
a(I11
I16
I9
I9
tp144
a(I11
I16
I9
I22
tp145
a(I11
I16
I13
I13
tp146
a(I11
I16
I16
I9
tp147
a(I11
I16
I16
I16
tp148
a(I11
I16
I16
I18
tp149
a(I11
I16
I16
I22
tp150
a(I11
I16
I16
I24
tp151
a(I11
I16
I21
I9
tp152
a(I11
I16
I21
I22
tp153
a(I11
I17
I8
I8
tp154
a(I11
I17
I8
I21
tp155
a(I11
I17
I12
I12
tp156
a(I11
I17
I12
I19
tp157
a(I11
I17
I15
I15
tp158
a(I11
I17
I15
I17
tp159
a(I11
I17
I15
I23
tp160
a(I11
I17
I17
I17
tp161
a(I11
I17
I17
I23
tp162
a(I11
I17
I21
I8
tp163
a(I11
I17
I21
I21
tp164
a(I11
I17
I23
I17
tp165
a(I11
I17
I23
I23
tp166
a(I11
I22
I7
I7
tp167
a(I11
I22
I22
I9
tp168
a(I11
I22
I22
I22
tp169
a(I11
I23
I6
I17
tp170
a(I11
I23
I6
I23
tp171
a(I11
I23
I8
I8
tp172
a(I11
I23
I8
I21
tp173
a(I11
I23
I12
I12
tp174
a(I11
I23
I12
I19
tp175
a(I11
I23
I13
I17
tp176
a(I11
I23
I13
I23
tp177
a(I11
I23
I15
I15
tp178
a(I11
I23
I15
I17
tp179
a(I11
I23
I15
I23
tp180
a(I11
I23
I16
I12
tp181
a(I11
I23
I16
I19
tp182
a(I11
I23
I17
I17
tp183
a(I11
I23
I17
I23
tp184
a(I11
I23
I21
I8
tp185
a(I11
I23
I21
I21
tp186
a(I11
I23
I23
I17
tp187
a(I11
I23
I23
I23
tp188
a(I12
I11
I11
I11
tp189
a(I12
I11
I24
I9
tp190
a(I12
I11
I24
I16
tp191
a(I12
I11
I24
I18
tp192
a(I12
I11
I24
I22
tp193
a(I12
I11
I24
I24
tp194
a(I12
I13
I6
I13
tp195
a(I12
I13
I8
I9
tp196
a(I12
I13
I8
I22
tp197
a(I12
I13
I9
I9
tp198
a(I12
I13
I9
I22
tp199
a(I12
I13
I13
I13
tp200
a(I12
I13
I16
I9
tp201
a(I12
I13
I16
I16
tp202
a(I12
I13
I16
I18
tp203
a(I12
I13
I16
I22
tp204
a(I12
I13
I16
I24
tp205
a(I12
I13
I21
I9
tp206
a(I12
I13
I21
I22
tp207
a(I12
I16
I6
I13
tp208
a(I12
I16
I8
I9
tp209
a(I12
I16
I8
I22
tp210
a(I12
I16
I9
I9
tp211
a(I12
I16
I9
I22
tp212
a(I12
I16
I13
I13
tp213
a(I12
I16
I16
I9
tp214
a(I12
I16
I16
I16
tp215
a(I12
I16
I16
I18
tp216
a(I12
I16
I16
I22
tp217
a(I12
I16
I16
I24
tp218
a(I12
I16
I21
I9
tp219
a(I12
I16
I21
I22
tp220
a(I12
I22
I7
I7
tp221
a(I12
I22
I22
I9
tp222
a(I12
I22
I22
I22
tp223
a(I12
I23
I6
I17
tp224
a(I12
I23
I6
I23
tp225
a(I12
I23
I8
I8
tp226
a(I12
I23
I8
I21
tp227
a(I12
I23
I12
I12
tp228
a(I12
I23
I12
I19
tp229
a(I12
I23
I13
I17
tp230
a(I12
I23
I13
I23
tp231
a(I12
I23
I15
I15
tp232
a(I12
I23
I15
I17
tp233
a(I12
I23
I15
I23
tp234
a(I12
I23
I16
I12
tp235
a(I12
I23
I16
I19
tp236
a(I12
I23
I17
I17
tp237
a(I12
I23
I17
I23
tp238
a(I12
I23
I21
I8
tp239
a(I12
I23
I21
I21
tp240
a(I12
I23
I23
I17
tp241
a(I12
I23
I23
I23
tp242
a(I13
I13
I6
I13
tp243
a(I13
I13
I13
I13
tp244
a(I13
I16
I6
I13
tp245
a(I13
I16
I13
I13
tp246
a(I14
I14
I14
I14
tp247
a(I15
I11
I11
I11
tp248
a(I15
I11
I24
I9
tp249
a(I15
I11
I24
I16
tp250
a(I15
I11
I24
I18
tp251
a(I15
I11
I24
I22
tp252
a(I15
I11
I24
I24
tp253
a(I15
I12
I8
I8
tp254
a(I15
I12
I8
I21
tp255
a(I15
I12
I12
I12
tp256
a(I15
I12
I12
I19
tp257
a(I15
I12
I15
I15
tp258
a(I15
I12
I15
I17
tp259
a(I15
I12
I15
I23
tp260
a(I15
I12
I17
I23
tp261
a(I15
I12
I21
I8
tp262
a(I15
I12
I21
I21
tp263
a(I15
I12
I23
I23
tp264
a(I15
I13
I6
I13
tp265
a(I15
I13
I8
I9
tp266
a(I15
I13
I8
I22
tp267
a(I15
I13
I9
I9
tp268
a(I15
I13
I9
I22
tp269
a(I15
I13
I13
I13
tp270
a(I15
I13
I16
I9
tp271
a(I15
I13
I16
I16
tp272
a(I15
I13
I16
I18
tp273
a(I15
I13
I16
I22
tp274
a(I15
I13
I16
I24
tp275
a(I15
I13
I21
I9
tp276
a(I15
I13
I21
I22
tp277
a(I15
I16
I6
I13
tp278
a(I15
I16
I8
I9
tp279
a(I15
I16
I8
I22
tp280
a(I15
I16
I9
I9
tp281
a(I15
I16
I9
I22
tp282
a(I15
I16
I13
I13
tp283
a(I15
I16
I16
I9
tp284
a(I15
I16
I16
I16
tp285
a(I15
I16
I16
I18
tp286
a(I15
I16
I16
I22
tp287
a(I15
I16
I16
I24
tp288
a(I15
I16
I21
I9
tp289
a(I15
I16
I21
I22
tp290
a(I15
I17
I8
I8
tp291
a(I15
I17
I8
I21
tp292
a(I15
I17
I12
I12
tp293
a(I15
I17
I12
I19
tp294
a(I15
I17
I15
I15
tp295
a(I15
I17
I15
I17
tp296
a(I15
I17
I15
I23
tp297
a(I15
I17
I17
I23
tp298
a(I15
I17
I21
I8
tp299
a(I15
I17
I21
I21
tp300
a(I15
I17
I23
I23
tp301
a(I15
I22
I7
I7
tp302
a(I15
I22
I22
I9
tp303
a(I15
I22
I22
I22
tp304
a(I15
I23
I6
I23
tp305
a(I15
I23
I8
I8
tp306
a(I15
I23
I8
I21
tp307
a(I15
I23
I12
I12
tp308
a(I15
I23
I12
I19
tp309
a(I15
I23
I13
I23
tp310
a(I15
I23
I15
I15
tp311
a(I15
I23
I15
I17
tp312
a(I15
I23
I15
I23
tp313
a(I15
I23
I16
I12
tp314
a(I15
I23
I16
I19
tp315
a(I15
I23
I17
I23
tp316
a(I15
I23
I21
I8
tp317
a(I15
I23
I21
I21
tp318
a(I15
I23
I23
I23
tp319
a(I16
I12
I8
I8
tp320
a(I16
I12
I8
I21
tp321
a(I16
I12
I12
I12
tp322
a(I16
I12
I12
I19
tp323
a(I16
I12
I15
I15
tp324
a(I16
I12
I15
I17
tp325
a(I16
I12
I15
I23
tp326
a(I16
I12
I17
I23
tp327
a(I16
I12
I21
I8
tp328
a(I16
I12
I21
I21
tp329
a(I16
I12
I23
I23
tp330
a(I16
I15
I6
I23
tp331
a(I16
I15
I8
I8
tp332
a(I16
I15
I8
I21
tp333
a(I16
I15
I13
I23
tp334
a(I16
I15
I15
I15
tp335
a(I16
I15
I15
I17
tp336
a(I16
I15
I15
I23
tp337
a(I16
I15
I16
I12
tp338
a(I16
I15
I16
I19
tp339
a(I16
I15
I17
I23
tp340
a(I16
I15
I21
I8
tp341
a(I16
I15
I21
I21
tp342
a(I16
I15
I23
I23
tp343
a(I16
I17
I8
I8
tp344
a(I16
I17
I8
I21
tp345
a(I16
I17
I12
I12
tp346
a(I16
I17
I12
I19
tp347
a(I16
I17
I15
I15
tp348
a(I16
I17
I15
I17
tp349
a(I16
I17
I15
I23
tp350
a(I16
I17
I17
I23
tp351
a(I16
I17
I21
I8
tp352
a(I16
I17
I21
I21
tp353
a(I16
I17
I23
I23
tp354
a(I16
I22
I7
I7
tp355
a(I16
I22
I22
I9
tp356
a(I16
I22
I22
I22
tp357
a(I16
I23
I6
I23
tp358
a(I16
I23
I8
I8
tp359
a(I16
I23
I8
I21
tp360
a(I16
I23
I12
I12
tp361
a(I16
I23
I12
I19
tp362
a(I16
I23
I13
I23
tp363
a(I16
I23
I15
I15
tp364
a(I16
I23
I15
I17
tp365
a(I16
I23
I15
I23
tp366
a(I16
I23
I16
I12
tp367
a(I16
I23
I16
I19
tp368
a(I16
I23
I17
I23
tp369
a(I16
I23
I21
I8
tp370
a(I16
I23
I21
I21
tp371
a(I16
I23
I23
I23
tp372
a(I17
I11
I11
I11
tp373
a(I17
I11
I24
I9
tp374
a(I17
I11
I24
I16
tp375
a(I17
I11
I24
I18
tp376
a(I17
I11
I24
I22
tp377
a(I17
I11
I24
I24
tp378
a(I17
I13
I6
I13
tp379
a(I17
I13
I8
I9
tp380
a(I17
I13
I8
I22
tp381
a(I17
I13
I9
I9
tp382
a(I17
I13
I9
I22
tp383
a(I17
I13
I13
I13
tp384
a(I17
I13
I16
I9
tp385
a(I17
I13
I16
I16
tp386
a(I17
I13
I16
I18
tp387
a(I17
I13
I16
I22
tp388
a(I17
I13
I16
I24
tp389
a(I17
I13
I21
I9
tp390
a(I17
I13
I21
I22
tp391
a(I17
I16
I6
I13
tp392
a(I17
I16
I8
I9
tp393
a(I17
I16
I8
I22
tp394
a(I17
I16
I9
I9
tp395
a(I17
I16
I9
I22
tp396
a(I17
I16
I13
I13
tp397
a(I17
I16
I16
I9
tp398
a(I17
I16
I16
I16
tp399
a(I17
I16
I16
I18
tp400
a(I17
I16
I16
I22
tp401
a(I17
I16
I16
I24
tp402
a(I17
I16
I21
I9
tp403
a(I17
I16
I21
I22
tp404
a(I17
I22
I7
I7
tp405
a(I17
I22
I22
I9
tp406
a(I17
I22
I22
I22
tp407
a(I17
I23
I6
I17
tp408
a(I17
I23
I6
I23
tp409
a(I17
I23
I8
I8
tp410
a(I17
I23
I8
I21
tp411
a(I17
I23
I12
I12
tp412
a(I17
I23
I12
I19
tp413
a(I17
I23
I13
I17
tp414
a(I17
I23
I13
I23
tp415
a(I17
I23
I15
I15
tp416
a(I17
I23
I15
I17
tp417
a(I17
I23
I15
I23
tp418
a(I17
I23
I16
I12
tp419
a(I17
I23
I16
I19
tp420
a(I17
I23
I17
I17
tp421
a(I17
I23
I17
I23
tp422
a(I17
I23
I21
I8
tp423
a(I17
I23
I21
I21
tp424
a(I17
I23
I23
I17
tp425
a(I17
I23
I23
I23
tp426
a(I19
I6
I6
I6
tp427
a(I19
I6
I13
I6
tp428
a(I19
I7
I7
I7
tp429
a(I19
I7
I22
I9
tp430
a(I19
I7
I22
I22
tp431
a(I20
I7
I7
I7
tp432
a(I20
I7
I22
I9
tp433
a(I20
I7
I22
I22
tp434
a(I20
I20
I14
I14
tp435
a(I20
I20
I20
I20
tp436
a(I21
I8
I6
I17
tp437
a(I21
I8
I6
I23
tp438
a(I21
I8
I8
I8
tp439
a(I21
I8
I8
I21
tp440
a(I21
I8
I13
I17
tp441
a(I21
I8
I13
I23
tp442
a(I21
I8
I15
I15
tp443
a(I21
I8
I15
I17
tp444
a(I21
I8
I15
I23
tp445
a(I21
I8
I16
I12
tp446
a(I21
I8
I16
I19
tp447
a(I21
I8
I17
I17
tp448
a(I21
I8
I17
I23
tp449
a(I21
I8
I21
I8
tp450
a(I21
I8
I21
I21
tp451
a(I21
I8
I23
I17
tp452
a(I21
I8
I23
I23
tp453
a(I21
I21
I6
I17
tp454
a(I21
I21
I6
I23
tp455
a(I21
I21
I8
I8
tp456
a(I21
I21
I8
I21
tp457
a(I21
I21
I13
I17
tp458
a(I21
I21
I13
I23
tp459
a(I21
I21
I15
I15
tp460
a(I21
I21
I15
I17
tp461
a(I21
I21
I15
I23
tp462
a(I21
I21
I17
I17
tp463
a(I21
I21
I17
I23
tp464
a(I21
I21
I21
I8
tp465
a(I21
I21
I21
I21
tp466
a(I21
I21
I23
I17
tp467
a(I21
I21
I23
I23
tp468
a(I22
I11
I11
I11
tp469
a(I22
I11
I24
I9
tp470
a(I22
I11
I24
I16
tp471
a(I22
I11
I24
I18
tp472
a(I22
I11
I24
I22
tp473
a(I22
I11
I24
I24
tp474
a(I22
I12
I8
I8
tp475
a(I22
I12
I8
I21
tp476
a(I22
I12
I12
I12
tp477
a(I22
I12
I12
I19
tp478
a(I22
I12
I15
I15
tp479
a(I22
I12
I15
I17
tp480
a(I22
I12
I15
I23
tp481
a(I22
I12
I17
I23
tp482
a(I22
I12
I21
I8
tp483
a(I22
I12
I21
I21
tp484
a(I22
I12
I23
I23
tp485
a(I22
I13
I6
I13
tp486
a(I22
I13
I8
I9
tp487
a(I22
I13
I8
I22
tp488
a(I22
I13
I9
I9
tp489
a(I22
I13
I9
I22
tp490
a(I22
I13
I13
I13
tp491
a(I22
I13
I16
I9
tp492
a(I22
I13
I16
I16
tp493
a(I22
I13
I16
I18
tp494
a(I22
I13
I16
I22
tp495
a(I22
I13
I16
I24
tp496
a(I22
I13
I21
I9
tp497
a(I22
I13
I21
I22
tp498
a(I22
I15
I6
I23
tp499
a(I22
I15
I8
I8
tp500
a(I22
I15
I8
I21
tp501
a(I22
I15
I13
I23
tp502
a(I22
I15
I15
I15
tp503
a(I22
I15
I15
I17
tp504
a(I22
I15
I15
I23
tp505
a(I22
I15
I16
I12
tp506
a(I22
I15
I16
I19
tp507
a(I22
I15
I17
I23
tp508
a(I22
I15
I21
I8
tp509
a(I22
I15
I21
I21
tp510
a(I22
I15
I23
I23
tp511
a(I22
I16
I6
I13
tp512
a(I22
I16
I8
I9
tp513
a(I22
I16
I8
I22
tp514
a(I22
I16
I9
I9
tp515
a(I22
I16
I9
I22
tp516
a(I22
I16
I13
I13
tp517
a(I22
I16
I16
I9
tp518
a(I22
I16
I16
I16
tp519
a(I22
I16
I16
I18
tp520
a(I22
I16
I16
I22
tp521
a(I22
I16
I16
I24
tp522
a(I22
I16
I21
I9
tp523
a(I22
I16
I21
I22
tp524
a(I22
I17
I8
I8
tp525
a(I22
I17
I8
I21
tp526
a(I22
I17
I12
I12
tp527
a(I22
I17
I12
I19
tp528
a(I22
I17
I15
I15
tp529
a(I22
I17
I15
I17
tp530
a(I22
I17
I15
I23
tp531
a(I22
I17
I17
I23
tp532
a(I22
I17
I21
I8
tp533
a(I22
I17
I21
I21
tp534
a(I22
I17
I23
I23
tp535
a(I22
I22
I7
I7
tp536
a(I22
I22
I22
I9
tp537
a(I22
I22
I22
I22
tp538
a(I22
I23
I6
I23
tp539
a(I22
I23
I8
I8
tp540
a(I22
I23
I8
I21
tp541
a(I22
I23
I12
I12
tp542
a(I22
I23
I12
I19
tp543
a(I22
I23
I13
I23
tp544
a(I22
I23
I15
I15
tp545
a(I22
I23
I15
I17
tp546
a(I22
I23
I15
I23
tp547
a(I22
I23
I16
I12
tp548
a(I22
I23
I16
I19
tp549
a(I22
I23
I17
I23
tp550
a(I22
I23
I21
I8
tp551
a(I22
I23
I21
I21
tp552
a(I22
I23
I23
I23
tp553
a(I23
I11
I11
I11
tp554
a(I23
I11
I24
I9
tp555
a(I23
I11
I24
I16
tp556
a(I23
I11
I24
I18
tp557
a(I23
I11
I24
I22
tp558
a(I23
I11
I24
I24
tp559
a(I23
I12
I8
I8
tp560
a(I23
I12
I8
I21
tp561
a(I23
I12
I12
I12
tp562
a(I23
I12
I12
I19
tp563
a(I23
I12
I15
I15
tp564
a(I23
I12
I15
I17
tp565
a(I23
I12
I15
I23
tp566
a(I23
I12
I17
I17
tp567
a(I23
I12
I17
I23
tp568
a(I23
I12
I21
I8
tp569
a(I23
I12
I21
I21
tp570
a(I23
I12
I23
I17
tp571
a(I23
I12
I23
I23
tp572
a(I23
I13
I6
I13
tp573
a(I23
I13
I8
I9
tp574
a(I23
I13
I8
I22
tp575
a(I23
I13
I9
I9
tp576
a(I23
I13
I9
I22
tp577
a(I23
I13
I13
I13
tp578
a(I23
I13
I16
I9
tp579
a(I23
I13
I16
I16
tp580
a(I23
I13
I16
I18
tp581
a(I23
I13
I16
I22
tp582
a(I23
I13
I16
I24
tp583
a(I23
I13
I21
I9
tp584
a(I23
I13
I21
I22
tp585
a(I23
I15
I6
I17
tp586
a(I23
I15
I6
I23
tp587
a(I23
I15
I8
I8
tp588
a(I23
I15
I8
I21
tp589
a(I23
I15
I13
I17
tp590
a(I23
I15
I13
I23
tp591
a(I23
I15
I15
I15
tp592
a(I23
I15
I15
I17
tp593
a(I23
I15
I15
I23
tp594
a(I23
I15
I16
I12
tp595
a(I23
I15
I16
I19
tp596
a(I23
I15
I17
I17
tp597
a(I23
I15
I17
I23
tp598
a(I23
I15
I21
I8
tp599
a(I23
I15
I21
I21
tp600
a(I23
I15
I23
I17
tp601
a(I23
I15
I23
I23
tp602
a(I23
I16
I6
I13
tp603
a(I23
I16
I8
I9
tp604
a(I23
I16
I8
I22
tp605
a(I23
I16
I9
I9
tp606
a(I23
I16
I9
I22
tp607
a(I23
I16
I13
I13
tp608
a(I23
I16
I16
I9
tp609
a(I23
I16
I16
I16
tp610
a(I23
I16
I16
I18
tp611
a(I23
I16
I16
I22
tp612
a(I23
I16
I16
I24
tp613
a(I23
I16
I21
I9
tp614
a(I23
I16
I21
I22
tp615
a(I23
I17
I8
I8
tp616
a(I23
I17
I8
I21
tp617
a(I23
I17
I12
I12
tp618
a(I23
I17
I12
I19
tp619
a(I23
I17
I15
I15
tp620
a(I23
I17
I15
I17
tp621
a(I23
I17
I15
I23
tp622
a(I23
I17
I17
I17
tp623
a(I23
I17
I17
I23
tp624
a(I23
I17
I21
I8
tp625
a(I23
I17
I21
I21
tp626
a(I23
I17
I23
I17
tp627
a(I23
I17
I23
I23
tp628
a(I23
I22
I7
I7
tp629
a(I23
I22
I22
I9
tp630
a(I23
I22
I22
I22
tp631
a(I23
I23
I6
I17
tp632
a(I23
I23
I6
I23
tp633
a(I23
I23
I8
I8
tp634
a(I23
I23
I8
I21
tp635
a(I23
I23
I12
I12
tp636
a(I23
I23
I12
I19
tp637
a(I23
I23
I13
I17
tp638
a(I23
I23
I13
I23
tp639
a(I23
I23
I15
I15
tp640
a(I23
I23
I15
I17
tp641
a(I23
I23
I15
I23
tp642
a(I23
I23
I16
I12
tp643
a(I23
I23
I16
I19
tp644
a(I23
I23
I17
I17
tp645
a(I23
I23
I17
I23
tp646
a(I23
I23
I21
I8
tp647
a(I23
I23
I21
I21
tp648
a(I23
I23
I23
I17
tp649
a(I23
I23
I23
I23
tp650
a(I24
I9
I8
I9
tp651
a(I24
I9
I8
I22
tp652
a(I24
I9
I9
I9
tp653
a(I24
I9
I9
I22
tp654
a(I24
I9
I16
I9
tp655
a(I24
I9
I16
I16
tp656
a(I24
I9
I16
I18
tp657
a(I24
I9
I16
I22
tp658
a(I24
I9
I16
I24
tp659
a(I24
I24
I24
I9
tp660
a(I24
I24
I24
I16
tp661
a(I24
I24
I24
I18
tp662
a(I24
I24
I24
I22
tp663
a(I24
I24
I24
I24
tp664
a(dp665
g479
(lp666
g272
ag273
ag285
ag286
ag580
ag581
ag610
ag611
asg133
(lp667
g116
ag146
ag200
ag213
ag244
ag246
ag384
ag397
asg626
(lp668
g115
ag145
ag169
ag199
ag212
ag223
ag383
ag396
ag407
ag654
asg615
(lp669
g161
ag162
ag165
ag166
asg413
(lp670
g116
ag146
ag200
ag213
ag244
ag246
ag270
ag283
ag384
ag397
ag491
ag517
ag578
ag608
asg345
(lp671
g383
ag396
ag407
asg340
(lp672
g405
asg13
(lp673
g46
ag47
ag268
ag269
ag281
ag282
ag303
ag304
ag356
ag357
ag489
ag490
ag515
ag516
ag537
ag538
ag576
ag577
ag606
ag607
ag630
ag631
asg398
(lp674
g161
ag162
ag165
ag166
ag298
ag301
ag351
ag354
ag532
ag535
ag623
ag624
ag627
ag628
asg442
(lp675
g54
ag55
ag57
ag302
ag355
ag536
ag629
asg647
(lp676
g114
ag115
ag144
ag145
ag168
ag169
ag198
ag199
ag211
ag212
ag222
ag223
ag382
ag383
ag395
ag396
ag406
ag407
ag653
ag654
asg227
(lp677
g115
ag145
ag169
ag199
ag212
ag223
ag383
ag396
ag407
ag654
asg646
(lp678
g167
ag221
ag405
ag661
ag662
ag664
asg525
(lp679
g268
ag269
ag281
ag282
ag303
ag304
ag356
ag357
ag576
ag577
ag606
ag607
ag630
ag631
asg43
(lp680
g54
ag55
ag57
ag302
ag355
ag536
ag629
asg20
(lp681
g270
ag283
ag491
ag517
ag578
ag608
asg555
(lp682
g105
ag106
ag109
ag110
ag161
ag162
ag165
ag166
asg562
(lp683
g116
ag146
ag200
ag213
ag244
ag246
ag384
ag397
asg302
(lp684
g306
ag359
ag634
asg47
(lp685
g75
asg303
(lp686
g316
ag319
ag369
ag372
ag645
ag646
ag649
ag650
asg315
(lp687
g270
ag283
ag578
ag608
asg368
(lp688
g384
ag397
asg141
(lp689
g156
asg214
(lp690
g161
ag162
ag165
ag166
asg341
(lp691
g382
ag383
ag395
ag396
ag406
ag407
asg37
(lp692
g49
ag50
ag52
asg69
(lp693
g55
ag662
asg266
(lp694
g298
ag301
ag351
ag354
ag623
ag624
ag627
ag628
asg480
(lp695
g273
ag286
ag581
ag611
asg139
(lp696
g662
asg563
(lp697
g116
ag146
ag200
ag213
ag244
ag246
ag384
ag397
asg186
(lp698
g115
ag145
ag169
ag199
ag212
ag223
ag383
ag396
ag407
ag654
asg567
(lp699
g662
asg597
(lp700
g662
asg117
(lp701
g161
ag162
ag165
ag166
asg218
(lp702
g161
ag162
ag165
ag166
asg157
(lp703
g116
ag146
ag200
ag213
ag244
ag246
ag384
ag397
asg55
(lp704
g75
asg196
(lp705
g161
ag162
ag165
ag166
asg169
(lp706
g183
ag184
ag187
ag188
ag237
ag238
ag241
ag242
ag421
ag422
ag425
ag426
asg619
(lp707
g116
ag146
ag200
ag213
ag244
ag246
ag384
ag397
asg7
(lp708
g8
ag429
ag432
asg635
(lp709
g115
ag145
ag169
ag199
ag212
ag223
ag383
ag396
ag407
ag654
asg431
(lp710
g22
ag23
ag26
ag27
ag38
ag39
ag42
ag43
asg437
(lp711
g55
asg404
(lp712
g161
ag162
ag165
ag166
ag298
ag301
ag351
ag354
ag532
ag535
ag623
ag624
ag627
ag628
asg71
(lp713
g46
ag47
ag114
ag115
ag144
ag145
ag168
ag169
ag198
ag199
ag211
ag212
ag222
ag223
ag268
ag269
ag281
ag282
ag303
ag304
ag356
ag357
ag382
ag383
ag395
ag396
ag406
ag407
ag489
ag490
ag515
ag516
ag537
ag538
ag576
ag577
ag606
ag607
ag630
ag631
ag653
ag654
asg318
(lp714
g269
ag282
ag304
ag357
ag577
ag607
ag631
asg374
(lp715
g105
ag106
ag109
ag110
ag161
ag162
ag165
ag166
ag261
ag264
ag298
ag301
ag327
ag330
ag351
ag354
ag482
ag485
ag532
ag535
ag567
ag568
ag571
ag572
ag623
ag624
ag627
ag628
asg364
(lp716
g386
ag387
ag399
ag400
asg61
(lp717
g47
ag115
ag145
ag169
ag199
ag212
ag223
ag269
ag282
ag304
ag357
ag383
ag396
ag407
ag490
ag516
ag538
ag577
ag607
ag631
ag654
asg554
(lp718
g100
ag156
asg149
(lp719
g161
ag162
ag165
ag166
asg369
(lp720
g405
asg151
(lp721
g161
ag162
ag165
ag166
asg96
(lp722
g105
ag106
ag109
ag110
ag161
ag162
ag165
ag166
asg610
(lp723
g161
ag162
ag165
ag166
asg97
(lp724
g105
ag106
ag109
ag110
ag161
ag162
ag165
ag166
asg154
(lp725
g114
ag115
ag144
ag145
ag168
ag169
ag198
ag199
ag211
ag212
ag222
ag223
ag382
ag383
ag395
ag396
ag406
ag407
ag653
ag654
asg261
(lp726
g302
ag355
ag629
asg621
(lp727
g119
ag149
ag203
ag216
ag387
ag400
ag657
asg458
(lp728
g55
asg276
(lp729
g298
ag301
ag351
ag354
ag623
ag624
ag627
ag628
asg476
(lp730
g269
ag282
ag304
ag357
ag577
ag607
ag631
asg198
(lp731
g161
ag162
ag165
ag166
asg265
(lp732
g293
ag346
ag618
asg474
(lp733
g261
ag264
ag298
ag301
ag327
ag330
ag351
ag354
ag567
ag568
ag571
ag572
ag623
ag624
ag627
ag628
asg50
(lp734
g75
asg360
(lp735
g383
ag396
ag407
asg559
(lp736
g105
ag106
ag109
ag110
ag161
ag162
ag165
ag166
asg391
(lp737
g161
ag162
ag165
ag166
ag298
ag301
ag351
ag354
ag532
ag535
ag623
ag624
ag627
ag628
asg380
(lp738
g161
ag162
ag165
ag166
ag298
ag301
ag351
ag354
ag532
ag535
ag623
ag624
ag627
ag628
asg367
(lp739
g384
ag397
asg581
(lp740
g161
ag162
ag165
ag166
asg486
(lp741
g293
ag346
ag618
asg79
(lp742
g46
ag47
ag168
ag169
ag222
ag223
ag303
ag304
ag356
ag357
ag406
ag407
ag537
ag538
ag630
ag631
ag653
ag654
asg152
(lp743
g161
ag162
ag165
ag166
asg583
(lp744
g161
ag162
ag165
ag166
asg108
(lp745
g115
ag145
ag169
ag199
ag212
ag223
ag383
ag396
ag407
ag654
asg187
(lp746
g662
asg89
(lp747
g47
ag169
ag223
ag304
ag357
ag407
ag538
ag631
ag654
asg330
(lp748
g405
asg338
(lp749
g384
ag397
asg116
(lp750
g156
asg298
(lp751
g302
ag355
ag629
asg293
(lp752
g270
ag283
ag578
ag608
asg546
(lp753
g273
ag286
ag581
ag611
asg162
(lp754
g167
ag221
ag405
ag661
ag662
ag664
asg127
(lp755
g115
ag145
ag169
ag199
ag212
ag223
ag383
ag396
ag407
ag654
asg411
(lp756
g47
ag115
ag145
ag169
ag199
ag212
ag223
ag269
ag282
ag304
ag357
ag383
ag396
ag407
ag490
ag516
ag538
ag577
ag607
ag631
ag654
asg2
(lp757
g8
ag429
ag432
asg299
(lp758
g268
ag269
ag281
ag282
ag303
ag304
ag356
ag357
ag576
ag577
ag606
ag607
ag630
ag631
asg273
(lp759
g298
ag301
ag351
ag354
ag623
ag624
ag627
ag628
asg426
(lp760
g54
ag55
ag57
ag167
ag221
ag302
ag355
ag405
ag536
ag629
ag661
ag662
ag664
asg425
(lp761
g55
ag662
asg105
(lp762
g662
asg639
(lp763
g167
ag221
ag405
ag661
ag662
ag664
asg135
(lp764
g662
asg269
(lp765
g298
ag301
ag351
ag354
ag623
ag624
ag627
ag628
asg295
(lp766
g272
ag273
ag285
ag286
ag580
ag581
ag610
ag611
asg8
(lp767
g13
ag31
asg530
(lp768
g273
ag286
ag581
ag611
asg346
(lp769
g384
ag397
asg5
(lp770
g22
ag23
ag26
ag27
ag38
ag39
ag42
ag43
asg575
(lp771
g161
ag162
ag165
ag166
asg306
(lp772
g268
ag269
ag281
ag282
ag303
ag304
ag356
ag357
ag576
ag577
ag606
ag607
ag630
ag631
asg636
(lp773
g116
ag146
ag200
ag213
ag244
ag246
ag384
ag397
asg244
(lp774
g247
asg264
(lp775
g302
ag355
ag629
asg297
(lp776
g272
ag273
ag275
ag285
ag286
ag288
ag580
ag581
ag583
ag610
ag611
ag613
asg122
(lp777
g161
ag162
ag165
ag166
asg427
(lp778
g8
ag429
ag432
asg296
(lp779
g273
ag286
ag581
ag611
asg104
(lp780
g118
ag119
ag121
ag148
ag149
ag151
ag202
ag203
ag205
ag215
ag216
ag218
ag386
ag387
ag389
ag399
ag400
ag402
ag656
ag657
ag659
asg179
(lp781
g119
ag149
ag203
ag216
ag387
ag400
ag657
asg487
(lp782
g298
ag301
ag351
ag354
ag623
ag624
ag627
ag628
asg208
(lp783
g156
asg178
(lp784
g118
ag119
ag148
ag149
ag202
ag203
ag215
ag216
ag386
ag387
ag399
ag400
ag656
ag657
asg146
(lp785
g156
asg304
(lp786
g316
ag319
ag369
ag372
ag645
ag646
ag649
ag650
asg344
(lp787
g382
ag383
ag395
ag396
ag406
ag407
asg18
(lp788
g50
ag273
ag286
ag494
ag520
ag581
ag611
asg617
(lp789
g115
ag145
ag169
ag199
ag212
ag223
ag383
ag396
ag407
ag654
asg311
(lp790
g272
ag273
ag285
ag286
ag580
ag581
ag610
ag611
asg637
(lp791
g116
ag146
ag200
ag213
ag244
ag246
ag384
ag397
asg331
(lp792
g405
asg102
(lp793
g118
ag119
ag148
ag149
ag202
ag203
ag215
ag216
ag386
ag387
ag399
ag400
ag656
ag657
asg320
(lp794
g382
ag383
ag395
ag396
ag406
ag407
asg401
(lp795
g161
ag162
ag165
ag166
ag298
ag301
ag351
ag354
ag532
ag535
ag623
ag624
ag627
ag628
asg501
(lp796
g269
ag282
ag304
ag357
ag577
ag607
ag631
asg500
(lp797
g268
ag269
ag281
ag282
ag303
ag304
ag356
ag357
ag576
ag577
ag606
ag607
ag630
ag631
asg229
(lp798
g116
ag146
ag200
ag213
ag244
ag246
ag384
ag397
asg399
(lp799
g161
ag162
ag165
ag166
ag298
ag301
ag351
ag354
ag532
ag535
ag623
ag624
ag627
ag628
asg119
(lp800
g161
ag162
ag165
ag166
asg424
(lp801
g47
ag115
ag145
ag169
ag199
ag212
ag223
ag269
ag282
ag304
ag357
ag383
ag396
ag407
ag490
ag516
ag538
ag577
ag607
ag631
ag654
asg26
(lp802
g55
asg335
(lp803
g386
ag387
ag399
ag400
asg313
(lp804
g272
ag273
ag275
ag285
ag286
ag288
ag580
ag581
ag583
ag610
ag611
ag613
asg121
(lp805
g161
ag162
ag165
ag166
asg258
(lp806
g272
ag273
ag285
ag286
ag580
ag581
ag610
ag611
asg329
(lp807
g383
ag396
ag407
asg535
(lp808
g302
ag355
ag629
asg314
(lp809
g270
ag283
ag578
ag608
asg183
(lp810
g662
asg212
(lp811
g161
ag162
ag165
ag166
asg250
(lp812
g261
ag264
ag298
ag301
ag327
ag330
ag351
ag354
ag567
ag568
ag571
ag572
ag623
ag624
ag627
ag628
asg658
(lp813
g28
ag75
asg356
(lp814
g421
ag422
ag425
ag426
asg630
(lp815
g183
ag184
ag187
ag188
ag237
ag238
ag241
ag242
ag421
ag422
ag425
ag426
asg101
(lp816
g116
ag146
ag200
ag213
ag244
ag246
ag384
ag397
asg213
(lp817
g156
asg216
(lp818
g161
ag162
ag165
ag166
asg281
(lp819
g298
ag301
ag351
ag354
ag623
ag624
ag627
ag628
asg312
(lp820
g273
ag286
ag581
ag611
asg267
(lp821
g298
ag301
ag351
ag354
ag623
ag624
ag627
ag628
asg373
(lp822
g100
ag156
ag256
ag293
ag322
ag346
ag477
ag527
ag562
ag618
asg85
(lp823
g49
ag50
ag52
ag656
ag657
ag659
asg484
(lp824
g269
ag282
ag304
ag357
ag577
ag607
ag631
asg260
(lp825
g272
ag273
ag275
ag285
ag286
ag288
ag580
ag581
ag583
ag610
ag611
ag613
asg472
(lp826
g261
ag264
ag298
ag301
ag327
ag330
ag351
ag354
ag567
ag568
ag571
ag572
ag623
ag624
ag627
ag628
asg383
(lp827
g161
ag162
ag165
ag166
ag298
ag301
ag351
ag354
ag532
ag535
ag623
ag624
ag627
ag628
asg12
(lp828
g54
ag55
ag57
ag302
ag355
ag536
ag629
asg301
(lp829
g302
ag355
ag629
asg259
(lp830
g273
ag286
ag581
ag611
asg406
(lp831
g183
ag184
ag187
ag188
ag237
ag238
ag241
ag242
ag316
ag319
ag369
ag372
ag421
ag422
ag425
ag426
ag550
ag553
ag645
ag646
ag649
ag650
asg110
(lp832
g167
ag221
ag405
ag661
ag662
ag664
asg538
(lp833
g316
ag319
ag369
ag372
ag645
ag646
ag649
ag650
asg11
(lp834
g55
asg455
(lp835
g54
ag55
ag57
ag302
ag355
ag536
ag629
asg362
(lp836
g384
ag397
asg231
(lp837
g167
ag221
ag405
ag661
ag662
ag664
asg419
(lp838
g116
ag146
ag200
ag213
ag244
ag246
ag270
ag283
ag384
ag397
ag491
ag517
ag578
ag608
asg168
(lp839
g183
ag184
ag187
ag188
ag237
ag238
ag241
ag242
ag421
ag422
ag425
ag426
asg516
(lp840
g298
ag301
ag351
ag354
ag623
ag624
ag627
ag628
asg284
(lp841
g298
ag301
ag351
ag354
ag623
ag624
ag627
ag628
asg230
(lp842
g662
asg595
(lp843
g116
ag146
ag200
ag213
ag244
ag246
ag384
ag397
asg210
(lp844
g161
ag162
ag165
ag166
asg76
(lp845
g130
ag178
ag232
ag311
ag335
ag364
ag416
ag503
ag545
ag592
ag640
asg585
(lp846
g161
ag162
ag165
ag166
asg376
(lp847
g105
ag106
ag109
ag110
ag161
ag162
ag165
ag166
ag261
ag264
ag298
ag301
ag327
ag330
ag351
ag354
ag482
ag485
ag532
ag535
ag567
ag568
ag571
ag572
ag623
ag624
ag627
ag628
asg446
(lp848
g270
ag283
ag491
ag517
ag578
ag608
asg48
(lp849
g75
asg263
(lp850
g269
ag282
ag304
ag357
ag577
ag607
ag631
asg155
(lp851
g115
ag145
ag169
ag199
ag212
ag223
ag383
ag396
ag407
ag654
asg253
(lp852
g261
ag264
ag298
ag301
ag327
ag330
ag351
ag354
ag567
ag568
ag571
ag572
ag623
ag624
ag627
ag628
asg415
(lp853
g54
ag55
ag57
ag167
ag221
ag302
ag355
ag405
ag536
ag629
ag661
ag662
ag664
asg202
(lp854
g161
ag162
ag165
ag166
asg651
(lp855
g28
ag75
asg381
(lp856
g161
ag162
ag165
ag166
ag298
ag301
ag351
ag354
ag532
ag535
ag623
ag624
ag627
ag628
asg576
(lp857
g161
ag162
ag165
ag166
asg252
(lp858
g261
ag264
ag298
ag301
ag327
ag330
ag351
ag354
ag567
ag568
ag571
ag572
ag623
ag624
ag627
ag628
asg588
(lp859
g114
ag115
ag144
ag145
ag168
ag169
ag198
ag199
ag211
ag212
ag222
ag223
ag382
ag383
ag395
ag396
ag406
ag407
ag653
ag654
asg277
(lp860
g298
ag301
ag351
ag354
ag623
ag624
ag627
ag628
asg633
(lp861
g167
ag221
ag405
ag661
ag662
ag664
asg343
(lp862
g405
asg433
(lp863
g448
ag449
ag452
ag453
ag463
ag464
ag467
ag468
asg464
(lp864
g54
ag55
ag57
ag302
ag355
ag536
ag629
asg451
(lp865
g47
ag269
ag282
ag304
ag357
ag490
ag516
ag538
ag577
ag607
ag631
asg126
(lp866
g114
ag115
ag144
ag145
ag168
ag169
ag198
ag199
ag211
ag212
ag222
ag223
ag382
ag383
ag395
ag396
ag406
ag407
ag653
ag654
asg465
(lp867
g46
ag47
ag303
ag304
ag356
ag357
ag537
ag538
ag630
ag631
asg278
(lp868
g293
ag346
ag618
asg478
(lp869
g270
ag283
ag578
ag608
asg463
(lp870
g55
asg64
(lp871
g49
ag50
ag118
ag119
ag148
ag149
ag202
ag203
ag215
ag216
ag272
ag273
ag285
ag286
ag386
ag387
ag399
ag400
ag493
ag494
ag519
ag520
ag580
ag581
ag610
ag611
ag656
ag657
asg660
(lp872
g28
ag75
asg15
(lp873
g55
asg192
(lp874
g105
ag106
ag109
ag110
ag161
ag162
ag165
ag166
asg16
(lp875
g54
ag55
ag57
ag302
ag355
ag536
ag629
asg384
(lp876
g156
ag293
ag346
ag527
ag618
asg493
(lp877
g298
ag301
ag351
ag354
ag623
ag624
ag627
ag628
asg234
(lp878
g118
ag119
ag121
ag148
ag149
ag151
ag202
ag203
ag205
ag215
ag216
ag218
ag386
ag387
ag389
ag399
ag400
ag402
ag656
ag657
ag659
asg271
(lp879
g298
ag301
ag351
ag354
ag623
ag624
ag627
ag628
asg561
(lp880
g115
ag145
ag169
ag199
ag212
ag223
ag383
ag396
ag407
ag654
asg10
(lp881
g22
ag23
ag26
ag27
ag38
ag39
ag42
ag43
asg173
(lp882
g115
ag145
ag169
ag199
ag212
ag223
ag383
ag396
ag407
ag654
asg481
(lp883
g272
ag273
ag275
ag285
ag286
ag288
ag580
ag581
ag583
ag610
ag611
ag613
asg243
(lp884
g247
asg520
(lp885
g298
ag301
ag351
ag354
ag623
ag624
ag627
ag628
asg112
(lp886
g161
ag162
ag165
ag166
asg66
(lp887
g49
ag50
ag52
ag118
ag119
ag121
ag148
ag149
ag151
ag202
ag203
ag205
ag215
ag216
ag218
ag272
ag273
ag275
ag285
ag286
ag288
ag386
ag387
ag389
ag399
ag400
ag402
ag493
ag494
ag496
ag519
ag520
ag522
ag580
ag581
ag583
ag610
ag611
ag613
ag656
ag657
ag659
asg206
(lp888
g161
ag162
ag165
ag166
asg220
(lp889
g161
ag162
ag165
ag166
asg491
(lp890
g293
ag346
ag618
asg388
(lp891
g161
ag162
ag165
ag166
ag298
ag301
ag351
ag354
ag532
ag535
ag623
ag624
ag627
ag628
asg541
(lp892
g269
ag282
ag304
ag357
ag577
ag607
ag631
asg232
(lp893
g118
ag119
ag148
ag149
ag202
ag203
ag215
ag216
ag386
ag387
ag399
ag400
ag656
ag657
asg386
(lp894
g161
ag162
ag165
ag166
ag298
ag301
ag351
ag354
ag532
ag535
ag623
ag624
ag627
ag628
asg223
(lp895
g183
ag184
ag187
ag188
ag237
ag238
ag241
ag242
ag421
ag422
ag425
ag426
asg512
(lp896
g293
ag346
ag618
asg628
(lp897
g167
ag221
ag405
ag661
ag662
ag664
asg351
(lp898
g405
asg4
(lp899
g22
ag23
ag26
ag27
ag38
ag39
ag42
ag43
asg74
(lp900
g54
ag55
ag57
ag167
ag221
ag302
ag355
ag405
ag536
ag629
ag661
ag662
ag664
asg498
(lp901
g298
ag301
ag351
ag354
ag623
ag624
ag627
ag628
asg645
(lp902
g662
asg237
(lp903
g662
asg573
(lp904
g156
asg379
(lp905
g156
ag293
ag346
ag527
ag618
asg31
(lp906
g46
ag47
ag303
ag304
ag356
ag357
ag537
ag538
ag630
ag631
asg616
(lp907
g114
ag115
ag144
ag145
ag168
ag169
ag198
ag199
ag211
ag212
ag222
ag223
ag382
ag383
ag395
ag396
ag406
ag407
ag653
ag654
asg539
(lp908
g302
ag355
ag629
asg228
(lp909
g116
ag146
ag200
ag213
ag244
ag246
ag384
ag397
asg587
(lp910
g167
ag221
ag405
ag661
ag662
ag664
asg75
(lp911
g92
ag189
ag248
ag373
ag469
ag554
asg568
(lp912
g167
ag221
ag405
ag661
ag662
ag664
asg144
(lp913
g161
ag162
ag165
ag166
asg482
(lp914
g302
ag355
ag629
asg432
(lp915
g439
ag456
asg507
(lp916
g270
ag283
ag578
ag608
asg657
(lp917
g28
ag75
asg517
(lp918
g293
ag346
ag618
asg473
(lp919
g261
ag264
ag298
ag301
ag327
ag330
ag351
ag354
ag567
ag568
ag571
ag572
ag623
ag624
ag627
ag628
asg622
(lp920
g118
ag119
ag121
ag148
ag149
ag151
ag202
ag203
ag205
ag215
ag216
ag218
ag386
ag387
ag389
ag399
ag400
ag402
ag656
ag657
ag659
asg327
(lp921
g405
asg659
(lp922
g28
ag75
asg322
(lp923
g384
ag397
asg452
(lp924
g55
asg211
(lp925
g161
ag162
ag165
ag166
asg453
(lp926
g54
ag55
ag57
ag302
ag355
ag536
ag629
asg70
(lp927
g54
ag55
ag57
ag167
ag221
ag302
ag355
ag405
ag536
ag629
ag661
ag662
ag664
asg170
(lp928
g662
asg328
(lp929
g382
ag383
ag395
ag396
ag406
ag407
asg534
(lp930
g269
ag282
ag304
ag357
ag577
ag607
ag631
asg382
(lp931
g161
ag162
ag165
ag166
ag298
ag301
ag351
ag354
ag532
ag535
ag623
ag624
ag627
ag628
asg56
(lp932
g75
asg421
(lp933
g55
ag662
asg54
(lp934
g75
asg422
(lp935
g54
ag55
ag57
ag167
ag221
ag302
ag355
ag405
ag536
ag629
ag661
ag662
ag664
asg569
(lp936
g114
ag115
ag144
ag145
ag168
ag169
ag198
ag199
ag211
ag212
ag222
ag223
ag382
ag383
ag395
ag396
ag406
ag407
ag653
ag654
asg285
(lp937
g298
ag301
ag351
ag354
ag623
ag624
ag627
ag628
asg409
(lp938
g54
ag55
ag57
ag167
ag221
ag302
ag355
ag405
ag536
ag629
ag661
ag662
ag664
asg100
(lp939
g116
ag146
ag200
ag213
ag244
ag246
ag384
ag397
asg324
(lp940
g386
ag387
ag399
ag400
asg287
(lp941
g298
ag301
ag351
ag354
ag623
ag624
ag627
ag628
asg283
(lp942
g293
ag346
ag618
asg99
(lp943
g115
ag145
ag169
ag199
ag212
ag223
ag383
ag396
ag407
ag654
asg150
(lp944
g161
ag162
ag165
ag166
asg365
(lp945
g387
ag400
asg1
(lp946
g8
ag429
ag432
asg469
(lp947
g256
ag293
ag322
ag346
ag562
ag618
asg95
(lp948
g105
ag106
ag109
ag110
ag161
ag162
ag165
ag166
asg366
(lp949
g386
ag387
ag389
ag399
ag400
ag402
asg570
(lp950
g115
ag145
ag169
ag199
ag212
ag223
ag383
ag396
ag407
ag654
asg508
(lp951
g302
ag355
ag629
asg611
(lp952
g161
ag162
ag165
ag166
asg171
(lp953
g167
ag221
ag405
ag661
ag662
ag664
asg407
(lp954
g183
ag184
ag187
ag188
ag237
ag238
ag241
ag242
ag316
ag319
ag369
ag372
ag421
ag422
ag425
ag426
ag550
ag553
ag645
ag646
ag649
ag650
asg177
(lp955
g167
ag221
ag405
ag661
ag662
ag664
asg91
(lp956
g54
ag55
ag57
ag167
ag221
ag302
ag355
ag405
ag536
ag629
ag661
ag662
ag664
asg354
(lp957
g405
asg326
(lp958
g386
ag387
ag389
ag399
ag400
ag402
asg176
(lp959
g662
asg459
(lp960
g54
ag55
ag57
ag302
ag355
ag536
ag629
asg447
(lp961
g270
ag283
ag491
ag517
ag578
ag608
asg605
(lp962
g161
ag162
ag165
ag166
asg325
(lp963
g387
ag400
asg68
(lp964
g116
ag146
ag200
ag213
ag244
ag246
ag270
ag283
ag384
ag397
ag491
ag517
ag578
ag608
asg6
(lp965
g8
ag429
ag432
asg49
(lp966
g75
asg596
(lp967
g116
ag146
ag200
ag213
ag244
ag246
ag384
ag397
asg420
(lp968
g116
ag146
ag200
ag213
ag244
ag246
ag270
ag283
ag384
ag397
ag491
ag517
ag578
ag608
asg201
(lp969
g161
ag162
ag165
ag166
asg246
(lp970
g247
asg334
(lp971
g405
asg577
(lp972
g161
ag162
ag165
ag166
asg332
(lp973
g382
ag383
ag395
ag396
ag406
ag407
asg523
(lp974
g298
ag301
ag351
ag354
ag623
ag624
ag627
ag628
asg524
(lp975
g298
ag301
ag351
ag354
ag623
ag624
ag627
ag628
asg428
(lp976
g8
ag429
ag432
asg589
(lp977
g115
ag145
ag169
ag199
ag212
ag223
ag383
ag396
ag407
ag654
asg623
(lp978
g662
asg163
(lp979
g114
ag115
ag144
ag145
ag168
ag169
ag198
ag199
ag211
ag212
ag222
ag223
ag382
ag383
ag395
ag396
ag406
ag407
ag653
ag654
asg443
(lp980
g49
ag50
ag272
ag273
ag285
ag286
ag493
ag494
ag519
ag520
ag580
ag581
ag610
ag611
asg547
(lp981
g272
ag273
ag275
ag285
ag286
ag288
ag580
ag581
ag583
ag610
ag611
ag613
asg161
(lp982
g662
asg143
(lp983
g161
ag162
ag165
ag166
asg607
(lp984
g161
ag162
ag165
ag166
asg33
(lp985
g55
asg275
(lp986
g298
ag301
ag351
ag354
ag623
ag624
ag627
ag628
asg235
(lp987
g116
ag146
ag200
ag213
ag244
ag246
ag384
ag397
asg24
(lp988
g46
ag47
ag268
ag269
ag281
ag282
ag303
ag304
ag356
ag357
ag489
ag490
ag515
ag516
ag537
ag538
ag576
ag577
ag606
ag607
ag630
ag631
asg34
(lp989
g54
ag55
ag57
ag302
ag355
ag536
ag629
asg289
(lp990
g298
ag301
ag351
ag354
ag623
ag624
ag627
ag628
asg661
(lp991
g28
ag75
asg448
(lp992
g55
asg644
(lp993
g116
ag146
ag200
ag213
ag244
ag246
ag384
ag397
asg533
(lp994
g268
ag269
ag281
ag282
ag303
ag304
ag356
ag357
ag576
ag577
ag606
ag607
ag630
ag631
asg450
(lp995
g46
ag47
ag268
ag269
ag281
ag282
ag303
ag304
ag356
ag357
ag489
ag490
ag515
ag516
ag537
ag538
ag576
ag577
ag606
ag607
ag630
ag631
asg614
(lp996
g161
ag162
ag165
ag166
asg435
(lp997
g335
ag443
ag460
ag592
asg612
(lp998
g161
ag162
ag165
ag166
asg663
(lp999
g28
ag75
asg557
(lp1000
g105
ag106
ag109
ag110
ag161
ag162
ag165
ag166
asg518
(lp1001
g298
ag301
ag351
ag354
ag623
ag624
ag627
ag628
asg492
(lp1002
g298
ag301
ag351
ag354
ag623
ag624
ag627
ag628
asg350
(lp1003
g386
ag387
ag389
ag399
ag400
ag402
asg385
(lp1004
g161
ag162
ag165
ag166
ag298
ag301
ag351
ag354
ag532
ag535
ag623
ag624
ag627
ag628
asg430
(lp1005
g22
ag23
ag26
ag27
ag38
ag39
ag42
ag43
asg553
(lp1006
g302
ag355
ag629
asg136
(lp1007
g167
ag221
ag405
ag661
ag662
ag664
asg137
(lp1008
g114
ag115
ag144
ag145
ag168
ag169
ag198
ag199
ag211
ag212
ag222
ag223
ag382
ag383
ag395
ag396
ag406
ag407
ag653
ag654
asg540
(lp1009
g268
ag269
ag281
ag282
ag303
ag304
ag356
ag357
ag576
ag577
ag606
ag607
ag630
ag631
asg221
(lp1010
g172
ag226
ag410
asg190
(lp1011
g105
ag106
ag109
ag110
ag161
ag162
ag165
ag166
asg604
(lp1012
g161
ag162
ag165
ag166
asg23
(lp1013
g54
ag55
ag57
ag302
ag355
ag536
ag629
asg470
(lp1014
g261
ag264
ag298
ag301
ag327
ag330
ag351
ag354
ag567
ag568
ag571
ag572
ag623
ag624
ag627
ag628
asg548
(lp1015
g270
ag283
ag578
ag608
asg270
(lp1016
g293
ag346
ag618
asg591
(lp1017
g167
ag221
ag405
ag661
ag662
ag664
asg648
(lp1018
g115
ag145
ag169
ag199
ag212
ag223
ag383
ag396
ag407
ag654
asg625
(lp1019
g114
ag115
ag144
ag145
ag168
ag169
ag198
ag199
ag211
ag212
ag222
ag223
ag382
ag383
ag395
ag396
ag406
ag407
ag653
ag654
asg347
(lp1020
g384
ag397
asg558
(lp1021
g105
ag106
ag109
ag110
ag161
ag162
ag165
ag166
asg527
(lp1022
g270
ag283
ag578
ag608
asg543
(lp1023
g270
ag283
ag578
ag608
asg107
(lp1024
g114
ag115
ag144
ag145
ag168
ag169
ag198
ag199
ag211
ag212
ag222
ag223
ag382
ag383
ag395
ag396
ag406
ag407
ag653
ag654
asg556
(lp1025
g105
ag106
ag109
ag110
ag161
ag162
ag165
ag166
asg353
(lp1026
g383
ag396
ag407
asg279
(lp1027
g298
ag301
ag351
ag354
ag623
ag624
ag627
ag628
asg219
(lp1028
g161
ag162
ag165
ag166
asg503
(lp1029
g272
ag273
ag285
ag286
ag580
ag581
ag610
ag611
asg370
(lp1030
g382
ag383
ag395
ag396
ag406
ag407
asg19
(lp1031
g49
ag50
ag52
ag272
ag273
ag275
ag285
ag286
ag288
ag493
ag494
ag496
ag519
ag520
ag522
ag580
ag581
ag583
ag610
ag611
ag613
asg240
(lp1032
g115
ag145
ag169
ag199
ag212
ag223
ag383
ag396
ag407
ag654
asg134
(lp1033
g116
ag146
ag200
ag213
ag244
ag246
ag384
ag397
asg257
(lp1034
g270
ag283
ag578
ag608
asg526
(lp1035
g269
ag282
ag304
ag357
ag577
ag607
ag631
asg544
(lp1036
g302
ag355
ag629
asg46
(lp1037
g75
asg618
(lp1038
g116
ag146
ag200
ag213
ag244
ag246
ag384
ag397
asg609
(lp1039
g161
ag162
ag165
ag166
asg506
(lp1040
g270
ag283
ag578
ag608
asg120
(lp1041
g161
ag162
ag165
ag166
asg375
(lp1042
g105
ag106
ag109
ag110
ag161
ag162
ag165
ag166
ag261
ag264
ag298
ag301
ag327
ag330
ag351
ag354
ag482
ag485
ag532
ag535
ag567
ag568
ag571
ag572
ag623
ag624
ag627
ag628
asg145
(lp1043
g161
ag162
ag165
ag166
asg27
(lp1044
g54
ag55
ag57
ag302
ag355
ag536
ag629
asg467
(lp1045
g55
asg468
(lp1046
g54
ag55
ag57
ag302
ag355
ag536
ag629
asg560
(lp1047
g114
ag115
ag144
ag145
ag168
ag169
ag198
ag199
ag211
ag212
ag222
ag223
ag382
ag383
ag395
ag396
ag406
ag407
ag653
ag654
asg184
(lp1048
g167
ag221
ag405
ag661
ag662
ag664
asg590
(lp1049
g662
asg355
(lp1050
g410
asg32
(lp1051
g47
ag304
ag357
ag538
ag631
asg217
(lp1052
g161
ag162
ag165
ag166
asg620
(lp1053
g118
ag119
ag148
ag149
ag202
ag203
ag215
ag216
ag386
ag387
ag399
ag400
ag656
ag657
asg165
(lp1054
g662
asg627
(lp1055
g662
asg9
(lp1056
g22
ag23
ag26
ag27
ag38
ag39
ag42
ag43
asg44
(lp1057
g75
asg84
(lp1058
g50
ag657
asg510
(lp1059
g269
ag282
ag304
ag357
ag577
ag607
ag631
asg83
(lp1060
g49
ag50
ag656
ag657
asg28
(lp1061
g248
ag469
ag554
asg631
(lp1062
g183
ag184
ag187
ag188
ag237
ag238
ag241
ag242
ag421
ag422
ag425
ag426
asg552
(lp1063
g269
ag282
ag304
ag357
ag577
ag607
ag631
asg93
(lp1064
g105
ag106
ag109
ag110
ag161
ag162
ag165
ag166
asg189
(lp1065
g100
ag156
asg643
(lp1066
g116
ag146
ag200
ag213
ag244
ag246
ag384
ag397
asg454
(lp1067
g55
asg359
(lp1068
g382
ag383
ag395
ag396
ag406
ag407
asg378
(lp1069
g105
ag106
ag109
ag110
ag161
ag162
ag165
ag166
ag261
ag264
ag298
ag301
ag327
ag330
ag351
ag354
ag482
ag485
ag532
ag535
ag567
ag568
ag571
ag572
ag623
ag624
ag627
ag628
asg656
(lp1070
g28
ag75
asg361
(lp1071
g384
ag397
asg649
(lp1072
g662
asg532
(lp1073
g302
ag355
ag629
asg199
(lp1074
g161
ag162
ag165
ag166
asg182
(lp1075
g116
ag146
ag200
ag213
ag244
ag246
ag384
ag397
asg147
(lp1076
g161
ag162
ag165
ag166
asg129
(lp1077
g167
ag221
ag405
ag661
ag662
ag664
asg128
(lp1078
g662
asg414
(lp1079
g55
ag662
asg39
(lp1080
g54
ag55
ag57
ag302
ag355
ag536
ag629
asg536
(lp1081
g306
ag359
ag634
asg203
(lp1082
g161
ag162
ag165
ag166
asg114
(lp1083
g161
ag162
ag165
ag166
asg397
(lp1084
g156
ag293
ag346
ag527
ag618
asg305
(lp1085
g302
ag355
ag629
asg242
(lp1086
g167
ag221
ag405
ag661
ag662
ag664
asg475
(lp1087
g268
ag269
ag281
ag282
ag303
ag304
ag356
ag357
ag576
ag577
ag606
ag607
ag630
ag631
asg396
(lp1088
g161
ag162
ag165
ag166
ag298
ag301
ag351
ag354
ag532
ag535
ag623
ag624
ag627
ag628
asg159
(lp1089
g119
ag149
ag203
ag216
ag387
ag400
ag657
asg38
(lp1090
g55
asg632
(lp1091
g662
asg294
(lp1092
g270
ag283
ag578
ag608
asg457
(lp1093
g47
ag304
ag357
ag538
ag631
asg363
(lp1094
g405
asg247
(lp1095
g311
ag335
ag364
ag503
ag545
ag592
ag640
asg138
(lp1096
g115
ag145
ag169
ag199
ag212
ag223
ag383
ag396
ag407
ag654
asg25
(lp1097
g47
ag269
ag282
ag304
ag357
ag490
ag516
ag538
ag577
ag607
ag631
asg153
(lp1098
g161
ag162
ag165
ag166
asg191
(lp1099
g105
ag106
ag109
ag110
ag161
ag162
ag165
ag166
asg436
(lp1100
g342
ag451
ag466
ag600
asg495
(lp1101
g298
ag301
ag351
ag354
ag623
ag624
ag627
ag628
asg233
(lp1102
g119
ag149
ag203
ag216
ag387
ag400
ag657
asg542
(lp1103
g270
ag283
ag578
ag608
asg290
(lp1104
g298
ag301
ag351
ag354
ag623
ag624
ag627
ag628
asg519
(lp1105
g298
ag301
ag351
ag354
ag623
ag624
ag627
ag628
asg316
(lp1106
g302
ag355
ag629
asg236
(lp1107
g116
ag146
ag200
ag213
ag244
ag246
ag384
ag397
asg317
(lp1108
g268
ag269
ag281
ag282
ag303
ag304
ag356
ag357
ag576
ag577
ag606
ag607
ag630
ag631
asg549
(lp1109
g270
ag283
ag578
ag608
asg29
(lp1110
g55
asg268
(lp1111
g298
ag301
ag351
ag354
ag623
ag624
ag627
ag628
asg86
(lp1112
g55
ag662
asg132
(lp1113
g118
ag119
ag121
ag148
ag149
ag151
ag202
ag203
ag205
ag215
ag216
ag218
ag386
ag387
ag389
ag399
ag400
ag402
ag656
ag657
ag659
asg653
(lp1114
g28
ag75
asg405
(lp1115
g172
ag226
ag306
ag359
ag410
ag540
ag634
asg167
(lp1116
g172
ag226
ag410
asg545
(lp1117
g272
ag273
ag285
ag286
ag580
ag581
ag610
ag611
asg123
(lp1118
g161
ag162
ag165
ag166
asg73
(lp1119
g55
ag662
asg238
(lp1120
g167
ag221
ag405
ag661
ag662
ag664
asg130
(lp1121
g118
ag119
ag148
ag149
ag202
ag203
ag215
ag216
ag386
ag387
ag399
ag400
ag656
ag657
asg441
(lp1122
g55
asg239
(lp1123
g114
ag115
ag144
ag145
ag168
ag169
ag198
ag199
ag211
ag212
ag222
ag223
ag382
ag383
ag395
ag396
ag406
ag407
ag653
ag654
asg3
(lp1124
g13
ag31
asg42
(lp1125
g55
asg586
(lp1126
g662
asg599
(lp1127
g114
ag115
ag144
ag145
ag168
ag169
ag198
ag199
ag211
ag212
ag222
ag223
ag382
ag383
ag395
ag396
ag406
ag407
ag653
ag654
asg650
(lp1128
g167
ag221
ag405
ag661
ag662
ag664
asg537
(lp1129
g316
ag319
ag369
ag372
ag645
ag646
ag649
ag650
asg502
(lp1130
g302
ag355
ag629
asg490
(lp1131
g298
ag301
ag351
ag354
ag623
ag624
ag627
ag628
asg497
(lp1132
g298
ag301
ag351
ag354
ag623
ag624
ag627
ag628
asg280
(lp1133
g298
ag301
ag351
ag354
ag623
ag624
ag627
ag628
asg35
(lp1134
g49
ag50
asg36
(lp1135
g50
asg629
(lp1136
g172
ag226
ag410
asg321
(lp1137
g383
ag396
ag407
asg551
(lp1138
g268
ag269
ag281
ag282
ag303
ag304
ag356
ag357
ag576
ag577
ag606
ag607
ag630
ag631
asg357
(lp1139
g421
ag422
ag425
ag426
asg140
(lp1140
g167
ag221
ag405
ag661
ag662
ag664
asg249
(lp1141
g261
ag264
ag298
ag301
ag327
ag330
ag351
ag354
ag567
ag568
ag571
ag572
ag623
ag624
ag627
ag628
asg640
(lp1142
g118
ag119
ag148
ag149
ag202
ag203
ag215
ag216
ag386
ag387
ag399
ag400
ag656
ag657
asg124
(lp1143
g662
asg483
(lp1144
g268
ag269
ag281
ag282
ag303
ag304
ag356
ag357
ag576
ag577
ag606
ag607
ag630
ag631
asg423
(lp1145
g46
ag47
ag114
ag115
ag144
ag145
ag168
ag169
ag198
ag199
ag211
ag212
ag222
ag223
ag268
ag269
ag281
ag282
ag303
ag304
ag356
ag357
ag382
ag383
ag395
ag396
ag406
ag407
ag489
ag490
ag515
ag516
ag537
ag538
ag576
ag577
ag606
ag607
ag630
ag631
ag653
ag654
asg438
(lp1146
g54
ag55
ag57
ag302
ag355
ag536
ag629
asg125
(lp1147
g167
ag221
ag405
ag661
ag662
ag664
asg286
(lp1148
g298
ag301
ag351
ag354
ag623
ag624
ag627
ag628
asg57
(lp1149
g75
asg288
(lp1150
g298
ag301
ag351
ag354
ag623
ag624
ag627
ag628
asg148
(lp1151
g161
ag162
ag165
ag166
asg282
(lp1152
g298
ag301
ag351
ag354
ag623
ag624
ag627
ag628
asg613
(lp1153
g161
ag162
ag165
ag166
asg584
(lp1154
g161
ag162
ag165
ag166
asg574
(lp1155
g161
ag162
ag165
ag166
asg262
(lp1156
g268
ag269
ag281
ag282
ag303
ag304
ag356
ag357
ag576
ag577
ag606
ag607
ag630
ag631
asg94
(lp1157
g105
ag106
ag109
ag110
ag161
ag162
ag165
ag166
asg515
(lp1158
g298
ag301
ag351
ag354
ag623
ag624
ag627
ag628
asg45
(lp1159
g75
asg181
(lp1160
g116
ag146
ag200
ag213
ag244
ag246
ag384
ag397
asg509
(lp1161
g268
ag269
ag281
ag282
ag303
ag304
ag356
ag357
ag576
ag577
ag606
ag607
ag630
ag631
asg578
(lp1162
g156
asg393
(lp1163
g161
ag162
ag165
ag166
ag298
ag301
ag351
ag354
ag532
ag535
ag623
ag624
ag627
ag628
asg41
(lp1164
g47
ag304
ag357
ag538
ag631
asg255
(lp1165
g269
ag282
ag304
ag357
ag577
ag607
ag631
asg652
(lp1166
g28
ag75
asg111
(lp1167
g156
asg606
(lp1168
g161
ag162
ag165
ag166
asg51
(lp1169
g75
asg348
(lp1170
g386
ag387
ag399
ag400
asg477
(lp1171
g270
ag283
ag578
ag608
asg52
(lp1172
g75
asg593
(lp1173
g119
ag149
ag203
ag216
ag387
ag400
ag657
asg256
(lp1174
g270
ag283
ag578
ag608
asg580
(lp1175
g161
ag162
ag165
ag166
asg513
(lp1176
g298
ag301
ag351
ag354
ag623
ag624
ag627
ag628
asg582
(lp1177
g161
ag162
ag165
ag166
asg310
(lp1178
g302
ag355
ag629
asg188
(lp1179
g167
ag221
ag405
ag661
ag662
ag664
asg572
(lp1180
g167
ag221
ag405
ag661
ag662
ag664
asg395
(lp1181
g161
ag162
ag165
ag166
ag298
ag301
ag351
ag354
ag532
ag535
ag623
ag624
ag627
ag628
asg571
(lp1182
g662
asg292
(lp1183
g269
ag282
ag304
ag357
ag577
ag607
ag631
asg444
(lp1184
g50
ag273
ag286
ag494
ag520
ag581
ag611
asg499
(lp1185
g302
ag355
ag629
asg115
(lp1186
g161
ag162
ag165
ag166
asg172
(lp1187
g114
ag115
ag144
ag145
ag168
ag169
ag198
ag199
ag211
ag212
ag222
ag223
ag382
ag383
ag395
ag396
ag406
ag407
ag653
ag654
asg207
(lp1188
g161
ag162
ag165
ag166
asg175
(lp1189
g116
ag146
ag200
ag213
ag244
ag246
ag384
ag397
asg434
(lp1190
g448
ag449
ag452
ag453
ag463
ag464
ag467
ag468
asg598
(lp1191
g167
ag221
ag405
ag661
ag662
ag664
asg456
(lp1192
g46
ag47
ag303
ag304
ag356
ag357
ag537
ag538
ag630
ag631
asg82
(lp1193
g54
ag55
ag57
ag167
ag221
ag302
ag355
ag405
ag536
ag629
ag661
ag662
ag664
asg245
(lp1194
g247
asg195
(lp1195
g156
asg608
(lp1196
g156
asg603
(lp1197
g156
asg662
(lp1198
g28
ag75
asg514
(lp1199
g298
ag301
ag351
ag354
ag623
ag624
ag627
ag628
asg81
(lp1200
g55
ag662
asg274
(lp1201
g298
ag301
ag351
ag354
ag623
ag624
ag627
ag628
asg106
(lp1202
g167
ag221
ag405
ag661
ag662
ag664
asg496
(lp1203
g298
ag301
ag351
ag354
ag623
ag624
ag627
ag628
asg601
(lp1204
g662
asg445
(lp1205
g49
ag50
ag52
ag272
ag273
ag275
ag285
ag286
ag288
ag493
ag494
ag496
ag519
ag520
ag522
ag580
ag581
ag583
ag610
ag611
ag613
asg449
(lp1206
g54
ag55
ag57
ag302
ag355
ag536
ag629
asg222
(lp1207
g183
ag184
ag187
ag188
ag237
ag238
ag241
ag242
ag421
ag422
ag425
ag426
asg531
(lp1208
g272
ag273
ag275
ag285
ag286
ag288
ag580
ag581
ag583
ag610
ag611
ag613
asg248
(lp1209
g256
ag293
ag322
ag346
ag562
ag618
asg564
(lp1210
g118
ag119
ag148
ag149
ag202
ag203
ag215
ag216
ag386
ag387
ag399
ag400
ag656
ag657
asg309
(lp1211
g270
ag283
ag578
ag608
asg655
(lp1212
g28
ag75
asg460
(lp1213
g49
ag50
asg22
(lp1214
g55
asg392
(lp1215
g156
ag293
ag346
ag527
ag618
asg566
(lp1216
g118
ag119
ag121
ag148
ag149
ag151
ag202
ag203
ag205
ag215
ag216
ag218
ag386
ag387
ag389
ag399
ag400
ag402
ag656
ag657
ag659
asg14
(lp1217
g47
ag269
ag282
ag304
ag357
ag490
ag516
ag538
ag577
ag607
ag631
asg412
(lp1218
g116
ag146
ag200
ag213
ag244
ag246
ag270
ag283
ag384
ag397
ag491
ag517
ag578
ag608
asg113
(lp1219
g161
ag162
ag165
ag166
asg272
(lp1220
g298
ag301
ag351
ag354
ag623
ag624
ag627
ag628
asg342
(lp1221
g383
ag396
ag407
asg654
(lp1222
g28
ag75
asg511
(lp1223
g302
ag355
ag629
asg418
(lp1224
g49
ag50
ag52
ag118
ag119
ag121
ag148
ag149
ag151
ag202
ag203
ag205
ag215
ag216
ag218
ag272
ag273
ag275
ag285
ag286
ag288
ag386
ag387
ag389
ag399
ag400
ag402
ag493
ag494
ag496
ag519
ag520
ag522
ag580
ag581
ag583
ag610
ag611
ag613
ag656
ag657
ag659
asg592
(lp1225
g118
ag119
ag148
ag149
ag202
ag203
ag215
ag216
ag386
ag387
ag399
ag400
ag656
ag657
asg103
(lp1226
g119
ag149
ag203
ag216
ag387
ag400
ag657
asg180
(lp1227
g118
ag119
ag121
ag148
ag149
ag151
ag202
ag203
ag205
ag215
ag216
ag218
ag386
ag387
ag389
ag399
ag400
ag402
ag656
ag657
ag659
asg550
(lp1228
g302
ag355
ag629
asg461
(lp1229
g50
asg417
(lp1230
g50
ag119
ag149
ag203
ag216
ag273
ag286
ag387
ag400
ag494
ag520
ag581
ag611
ag657
asg358
(lp1231
g405
asg462
(lp1232
g49
ag50
ag52
asg410
(lp1233
g46
ag47
ag114
ag115
ag144
ag145
ag168
ag169
ag198
ag199
ag211
ag212
ag222
ag223
ag268
ag269
ag281
ag282
ag303
ag304
ag356
ag357
ag382
ag383
ag395
ag396
ag406
ag407
ag489
ag490
ag515
ag516
ag537
ag538
ag576
ag577
ag606
ag607
ag630
ag631
ag653
ag654
asg600
(lp1234
g115
ag145
ag169
ag199
ag212
ag223
ag383
ag396
ag407
ag654
asg505
(lp1235
g272
ag273
ag275
ag285
ag286
ag288
ag580
ag581
ag583
ag610
ag611
ag613
asg634
(lp1236
g114
ag115
ag144
ag145
ag168
ag169
ag198
ag199
ag211
ag212
ag222
ag223
ag382
ag383
ag395
ag396
ag406
ag407
ag653
ag654
asg416
(lp1237
g49
ag50
ag118
ag119
ag148
ag149
ag202
ag203
ag215
ag216
ag272
ag273
ag285
ag286
ag386
ag387
ag399
ag400
ag493
ag494
ag519
ag520
ag580
ag581
ag610
ag611
ag656
ag657
asg602
(lp1238
g167
ag221
ag405
ag661
ag662
ag664
asg17
(lp1239
g49
ag50
ag272
ag273
ag285
ag286
ag493
ag494
ag519
ag520
ag580
ag581
ag610
ag611
asg565
(lp1240
g119
ag149
ag203
ag216
ag387
ag400
ag657
asg336
(lp1241
g387
ag400
asg402
(lp1242
g161
ag162
ag165
ag166
ag298
ag301
ag351
ag354
ag532
ag535
ag623
ag624
ag627
ag628
asg624
(lp1243
g167
ag221
ag405
ag661
ag662
ag664
asg337
(lp1244
g386
ag387
ag389
ag399
ag400
ag402
asg400
(lp1245
g161
ag162
ag165
ag166
ag298
ag301
ag351
ag354
ag532
ag535
ag623
ag624
ag627
ag628
asg118
(lp1246
g161
ag162
ag165
ag166
asg323
(lp1247
g384
ag397
asg77
(lp1248
g55
ag662
asg185
(lp1249
g114
ag115
ag144
ag145
ag168
ag169
ag198
ag199
ag211
ag212
ag222
ag223
ag382
ag383
ag395
ag396
ag406
ag407
ag653
ag654
asg197
(lp1250
g161
ag162
ag165
ag166
asg226
(lp1251
g114
ag115
ag144
ag145
ag168
ag169
ag198
ag199
ag211
ag212
ag222
ag223
ag382
ag383
ag395
ag396
ag406
ag407
ag653
ag654
asg78
(lp1252
g54
ag55
ag57
ag167
ag221
ag302
ag355
ag405
ag536
ag629
ag661
ag662
ag664
asg638
(lp1253
g662
asg21
(lp1254
g270
ag283
ag491
ag517
ag578
ag608
asg251
(lp1255
g261
ag264
ag298
ag301
ag327
ag330
ag351
ag354
ag567
ag568
ag571
ag572
ag623
ag624
ag627
ag628
asg529
(lp1256
g272
ag273
ag285
ag286
ag580
ag581
ag610
ag611
asg98
(lp1257
g114
ag115
ag144
ag145
ag168
ag169
ag198
ag199
ag211
ag212
ag222
ag223
ag382
ag383
ag395
ag396
ag406
ag407
ag653
ag654
asg664
(lp1258
g28
ag75
asg53
(lp1259
g75
asg215
(lp1260
g161
ag162
ag165
ag166
asg72
(lp1261
g47
ag115
ag145
ag169
ag199
ag212
ag223
ag269
ag282
ag304
ag357
ag383
ag396
ag407
ag490
ag516
ag538
ag577
ag607
ag631
ag654
asg489
(lp1262
g298
ag301
ag351
ag354
ag623
ag624
ag627
ag628
asg166
(lp1263
g167
ag221
ag405
ag661
ag662
ag664
asg63
(lp1264
g54
ag55
ag57
ag167
ag221
ag302
ag355
ag405
ag536
ag629
ag661
ag662
ag664
asg471
(lp1265
g261
ag264
ag298
ag301
ag327
ag330
ag351
ag354
ag567
ag568
ag571
ag572
ag623
ag624
ag627
ag628
asg408
(lp1266
g55
ag662
asg429
(lp1267
g13
ag31
asg394
(lp1268
g161
ag162
ag165
ag166
ag298
ag301
ag351
ag354
ag532
ag535
ag623
ag624
ag627
ag628
asg403
(lp1269
g161
ag162
ag165
ag166
ag298
ag301
ag351
ag354
ag532
ag535
ag623
ag624
ag627
ag628
asg62
(lp1270
g55
ag662
asg109
(lp1271
g662
asg371
(lp1272
g383
ag396
ag407
asg90
(lp1273
g55
ag662
asg156
(lp1274
g116
ag146
ag200
ag213
ag244
ag246
ag384
ag397
asg319
(lp1275
g302
ag355
ag629
asg92
(lp1276
g100
ag156
asg466
(lp1277
g47
ag304
ag357
ag538
ag631
asg200
(lp1278
g156
asg224
(lp1279
g662
asg60
(lp1280
g46
ag47
ag114
ag115
ag144
ag145
ag168
ag169
ag198
ag199
ag211
ag212
ag222
ag223
ag268
ag269
ag281
ag282
ag303
ag304
ag356
ag357
ag382
ag383
ag395
ag396
ag406
ag407
ag489
ag490
ag515
ag516
ag537
ag538
ag576
ag577
ag606
ag607
ag630
ag631
ag653
ag654
asg349
(lp1281
g387
ag400
asg225
(lp1282
g167
ag221
ag405
ag661
ag662
ag664
asg30
(lp1283
g54
ag55
ag57
ag302
ag355
ag536
ag629
asg485
(lp1284
g302
ag355
ag629
asg641
(lp1285
g119
ag149
ag203
ag216
ag387
ag400
ag657
asg377
(lp1286
g105
ag106
ag109
ag110
ag161
ag162
ag165
ag166
ag261
ag264
ag298
ag301
ag327
ag330
ag351
ag354
ag482
ag485
ag532
ag535
ag567
ag568
ag571
ag572
ag623
ag624
ag627
ag628
asg205
(lp1287
g161
ag162
ag165
ag166
asg642
(lp1288
g118
ag119
ag121
ag148
ag149
ag151
ag202
ag203
ag205
ag215
ag216
ag218
ag386
ag387
ag389
ag399
ag400
ag402
ag656
ag657
ag659
asg158
(lp1289
g118
ag119
ag148
ag149
ag202
ag203
ag215
ag216
ag386
ag387
ag399
ag400
ag656
ag657
asg204
(lp1290
g161
ag162
ag165
ag166
asg65
(lp1291
g50
ag119
ag149
ag203
ag216
ag273
ag286
ag387
ag400
ag494
ag520
ag581
ag611
ag657
asg254
(lp1292
g268
ag269
ag281
ag282
ag303
ag304
ag356
ag357
ag576
ag577
ag606
ag607
ag630
ag631
asg80
(lp1293
g47
ag169
ag223
ag304
ag357
ag407
ag538
ag631
ag654
asg40
(lp1294
g46
ag47
ag303
ag304
ag356
ag357
ag537
ag538
ag630
ag631
asg504
(lp1295
g273
ag286
ag581
ag611
asg440
(lp1296
g47
ag269
ag282
ag304
ag357
ag490
ag516
ag538
ag577
ag607
ag631
asg67
(lp1297
g116
ag146
ag200
ag213
ag244
ag246
ag270
ag283
ag384
ag397
ag491
ag517
ag578
ag608
asg241
(lp1298
g662
asg291
(lp1299
g268
ag269
ag281
ag282
ag303
ag304
ag356
ag357
ag576
ag577
ag606
ag607
ag630
ag631
asg160
(lp1300
g118
ag119
ag121
ag148
ag149
ag151
ag202
ag203
ag205
ag215
ag216
ag218
ag386
ag387
ag389
ag399
ag400
ag402
ag656
ag657
ag659
asg390
(lp1301
g161
ag162
ag165
ag166
ag298
ag301
ag351
ag354
ag532
ag535
ag623
ag624
ag627
ag628
asg300
(lp1302
g269
ag282
ag304
ag357
ag577
ag607
ag631
asg88
(lp1303
g46
ag47
ag168
ag169
ag222
ag223
ag303
ag304
ag356
ag357
ag406
ag407
ag537
ag538
ag630
ag631
ag653
ag654
asg372
(lp1304
g405
asg579
(lp1305
g161
ag162
ag165
ag166
asg594
(lp1306
g118
ag119
ag121
ag148
ag149
ag151
ag202
ag203
ag205
ag215
ag216
ag218
ag386
ag387
ag389
ag399
ag400
ag402
ag656
ag657
ag659
asg209
(lp1307
g161
ag162
ag165
ag166
asg439
(lp1308
g46
ag47
ag268
ag269
ag281
ag282
ag303
ag304
ag356
ag357
ag489
ag490
ag515
ag516
ag537
ag538
ag576
ag577
ag606
ag607
ag630
ag631
asg339
(lp1309
g384
ag397
asg142
(lp1310
g161
ag162
ag165
ag166
asg494
(lp1311
g298
ag301
ag351
ag354
ag623
ag624
ag627
ag628
asg352
(lp1312
g382
ag383
ag395
ag396
ag406
ag407
asg193
(lp1313
g105
ag106
ag109
ag110
ag161
ag162
ag165
ag166
asg174
(lp1314
g116
ag146
ag200
ag213
ag244
ag246
ag384
ag397
asg488
(lp1315
g298
ag301
ag351
ag354
ag623
ag624
ag627
ag628
asg194
(lp1316
g105
ag106
ag109
ag110
ag161
ag162
ag165
ag166
asg307
(lp1317
g269
ag282
ag304
ag357
ag577
ag607
ag631
asg164
(lp1318
g115
ag145
ag169
ag199
ag212
ag223
ag383
ag396
ag407
ag654
asg308
(lp1319
g270
ag283
ag578
ag608
asg521
(lp1320
g298
ag301
ag351
ag354
ag623
ag624
ag627
ag628
asg58
(lp1321
g55
ag662
asg522
(lp1322
g298
ag301
ag351
ag354
ag623
ag624
ag627
ag628
asg333
(lp1323
g383
ag396
ag407
asg528
(lp1324
g270
ag283
ag578
ag608
asg59
(lp1325
g54
ag55
ag57
ag167
ag221
ag302
ag355
ag405
ag536
ag629
ag661
ag662
ag664
asg389
(lp1326
g161
ag162
ag165
ag166
ag298
ag301
ag351
ag354
ag532
ag535
ag623
ag624
ag627
ag628
asg87
(lp1327
g54
ag55
ag57
ag167
ag221
ag302
ag355
ag405
ag536
ag629
ag661
ag662
ag664
asg131
(lp1328
g119
ag149
ag203
ag216
ag387
ag400
ag657
asg387
(lp1329
g161
ag162
ag165
ag166
ag298
ag301
ag351
ag354
ag532
ag535
ag623
ag624
ag627
ag628
astp1330
.